?$SetOfflinePingResponse@RakPeer@RakNet@@QEAAXPEBDI@Z
?$_canOpenThis@ChestBlockActor@@QEBA_NAEAVBlockSource@@@Z
?$_getUpdatePacket@MovingBlockActor@@QEAA?AV?$unique_ptr@VBlockActorDataPacket@@U?$default_delete@VBlockActorDataPacket@@@std@@@std@@AEAVBlockSource@@@Z
?$_hurt@EnderCrystal@@QEAA_NAEBVActorDamageSource@@M_N1@Z
?$_hurt@Mob@@QEAA_NAEBVActorDamageSource@@M_N1@Z
?$_onItemChanged@LevelContainerModel@@QEAAXHAEBVItemStack@@0@Z
?$_subTick@ServerLevel@@QEAAXXZ
?$_useOn@BucketItem@@QEBA?AVInteractionResult@@AEAVItemStack@@AEAVActor@@VBlockPos@@EAEBVVec3@@@Z
?$addExperience@Player@@QEAAXH@Z
?$addItemToFirstEmptySlot@Container@@QEAA_NAEBVItemStack@@@Z
?$addPassenger@Actor@@QEAAXAEAV1@@Z
?$attack@ItemFrameBlock@@QEBA_NPEAVPlayer@@AEBVBlockPos@@@Z
?$attack@NoteBlock@@QEBA_NPEAVPlayer@@AEBVBlockPos@@@Z
?$canUse@EndermanTakeBlockGoal@@QEAA_NXZ
?$change@HealthAttributeDelegate@@QEAAMMMAEBVAttributeBuff@@@Z
?$checkBlockPermissions@BlockSource@@QEAA_NAEAVActor@@AEBVBlockPos@@EAEBVItemStackBase@@_N@Z
?$chooseLanguage@I18nImpl@@QEAAXAEBV?$basic_string@DU?$char_traits@D@std@@V?$allocator@D@2@@std@@@Z
?$consumeTotem@Player@@QEAA_NXZ
?$createSnapshot@DBStorage@@QEAA?AV?$vector@USnapshotFilenameAndLength@@V?$allocator@USnapshotFilenameAndLength@@@std@@@std@@AEBV?$basic_string@DU?$char_traits@D@std@@V?$allocator@D@2@@3@_N@Z
?$ctor@BatchedNetworkPeer@@QEAAPEAXV?$shared_ptr@VNetworkPeer@@@std@@AEAVScheduler@@@Z
?$ctor@CommandRegistry@@QEAAPEAX_N@Z
?$ctor@DBStorage@@QEAAPEAXUDBStorageConfig@@V?$not_null@V?$NonOwnerPointer@VLevelDbEnv@@@Bedrock@@@gsl@@@Z
?$ctor@Dimension@@QEAAPEAXAEAVILevel@@V?$AutomaticID@VDimension@@H@@VDimensionHeightRange@@AEAVScheduler@@V?$basic_string@DU?$char_traits@D@std@@V?$allocator@D@2@@std@@@Z
?$ctor@NetworkSystem@@QEAAPEAX$$QEAUDependencies@1@@Z
?$ctor@PlayerDimensionTransferer@@QEAAPEAXV?$unique_ptr@VIPlayerDimensionTransferProxy@@U?$default_delete@VIPlayerDimensionTransferProxy@@@std@@@std@@_NV?$not_null@V?$NonOwnerPointer@VPortalForcer@@@Bedrock@@@gsl@@V?$unique_ptr@VISharedSpawnGetter@@U?$default_delete@VISharedSpawnGetter@@@std@@@3@V?$NonOwnerPointer@VLevelStorage@@@Bedrock@@V?$NonOwnerPointer@VLoadingScreenIdManager@@@8@@Z
?$ctor@PropertiesSettings@@QEAAPEAXAEBV?$basic_string@DU?$char_traits@D@std@@V?$allocator@D@2@@std@@@Z
?$ctor@RakPeer@RakNet@@QEAAPEAXXZ
?$ctor@ResourcePack@@QEAAPEAXAEAVPack@@@Z
?$ctor@ResourcePacksInfoPacket@@QEAAPEAX_NAEAV?$vector@UPackInfoData@@V?$allocator@UPackInfoData@@@std@@@std@@0AEBUPackIdVersion@@@Z
?$ctor@ServerInstance@@QEAAPEAXAEAVIMinecraftApp@@AEBV?$not_null@V?$NonOwnerPointer@VServerInstanceEventCoordinator@@@Bedrock@@@gsl@@@Z
?$ctor@SpawnParticleEffectPacket@@QEAAPEAXAEBVVec3@@AEBV?$basic_string@DU?$char_traits@D@std@@V?$allocator@D@2@@std@@EV?$optional@VMolangVariableMap@@@4@@Z
?$ctor@StartGamePacket@@QEAAPEAXAEBVLevelSettings@@UActorUniqueID@@VActorRuntimeID@@W4GameType@@_NAEBVVec3@@AEBVVec2@@AEBV?$basic_string@DU?$char_traits@D@std@@V?$allocator@D@2@@std@@7AEBVContentIdentity@@7AEBVBlockDefinitionGroup@@4VCompoundTag@@AEBUPlayerMovementSettings@@7AEBVUUID@mce@@_KH_K@Z
?$ctor@UnknownBlock@@QEAAPEAXAEBV?$basic_string@DU?$char_traits@D@std@@V?$allocator@D@2@@std@@HAEBVMaterial@@@Z
?$ctor@VillageFeature@@QEAAPEAXIHH@Z
?$die@Mob@@QEAAXAEBVActorDamageSource@@@Z
?$die@Player@@QEAAXAEBVActorDamageSource@@@Z
?$dispense@FertilizerItem@@QEBA_NAEAVBlockSource@@AEAVContainer@@HAEBVVec3@@E@Z
?$drop@Player@@QEAA_NAEBVItemStack@@_N@Z
?$dtor@Actor@@QEAAXXZ
?$dtor@BatchedNetworkPeer@@QEAAXXZ
?$dtor@CommandRegistry@@QEAAXXZ
?$dtor@Level@@QEAAXXZ
?$dtor@Minecraft@@QEAAXXZ
?$dtor@NetworkSystem@@QEAAXXZ
?$dtor@RakPeer@RakNet@@QEAAXXZ
?$dtor@ResourcePackRepository@@QEAAXXZ
?$dtor@ServerInstance@@QEAAXXZ
?$dtor@ServerNetworkHandler@@QEAAXXZ
?$entityChangeDimension@Level@@QEAAXAEAVActor@@V?$AutomaticID@VDimension@@H@@V?$optional@VVec3@@@std@@@Z
?$execute@StopCommand@@QEBAXAEBVCommandOrigin@@AEAVCommandOutput@@@Z
?$explode@Level@@QEAA_NAEAVBlockSource@@PEAVActor@@AEBVVec3@@M_N3M3@Z
?$flush@BatchedNetworkPeer@@QEAAX$$QEAV?$function@$$A6AXXZ@std@@@Z
?$getDeathMessage@ActorDamageByActorSource@@QEBA?AU?$pair@V?$basic_string@DU?$char_traits@D@std@@V?$allocator@D@2@@std@@V?$vector@V?$basic_string@DU?$char_traits@D@std@@V?$allocator@D@2@@std@@V?$allocator@V?$basic_string@DU?$char_traits@D@std@@V?$allocator@D@2@@std@@@2@@2@@std@@V?$basic_string@DU?$char_traits@D@std@@V?$allocator@D@2@@3@PEAVActor@@@Z
?$getDeathMessage@ActorDamageByBlockSource@@QEBA?AU?$pair@V?$basic_string@DU?$char_traits@D@std@@V?$allocator@D@2@@std@@V?$vector@V?$basic_string@DU?$char_traits@D@std@@V?$allocator@D@2@@std@@V?$allocator@V?$basic_string@DU?$char_traits@D@std@@V?$allocator@D@2@@std@@@2@@2@@std@@V?$basic_string@DU?$char_traits@D@std@@V?$allocator@D@2@@3@PEAVActor@@@Z
?$getDeathMessage@ActorDamageByChildActorSource@@QEBA?AU?$pair@V?$basic_string@DU?$char_traits@D@std@@V?$allocator@D@2@@std@@V?$vector@V?$basic_string@DU?$char_traits@D@std@@V?$allocator@D@2@@std@@V?$allocator@V?$basic_string@DU?$char_traits@D@std@@V?$allocator@D@2@@std@@@2@@2@@std@@V?$basic_string@DU?$char_traits@D@std@@V?$allocator@D@2@@3@PEAVActor@@@Z
?$getDeathMessage@ActorDamageSource@@QEBA?AU?$pair@V?$basic_string@DU?$char_traits@D@std@@V?$allocator@D@2@@std@@V?$vector@V?$basic_string@DU?$char_traits@D@std@@V?$allocator@D@2@@std@@V?$allocator@V?$basic_string@DU?$char_traits@D@std@@V?$allocator@D@2@@std@@@2@@2@@std@@V?$basic_string@DU?$char_traits@D@std@@V?$allocator@D@2@@3@PEAVActor@@@Z
?$getPlayer@Level@@QEBAPEAVPlayer@@AEBVUUID@mce@@@Z
?$getXuid@Player@@QEBA?AV?$basic_string@DU?$char_traits@D@std@@V?$allocator@D@2@@std@@XZ
?$handle@ComplexInventoryTransaction@@QEBA?AW4InventoryTransactionError@@AEAVPlayer@@_N@Z
?$handle@ServerNetworkHandler@@QEAAXAEBVNetworkIdentifier@@AEBVAnimatePacket@@@Z
?$handle@ServerNetworkHandler@@QEAAXAEBVNetworkIdentifier@@AEBVContainerClosePacket@@@Z
?$handle@ServerNetworkHandler@@QEAAXAEBVNetworkIdentifier@@AEBVItemStackRequestPacket@@@Z
?$handle@ServerNetworkHandler@@QEAAXAEBVNetworkIdentifier@@AEBVLoginPacket@@@Z
?$handle@ServerNetworkHandler@@QEAAXAEBVNetworkIdentifier@@AEBVNpcRequestPacket@@@Z
?$handle@ServerNetworkHandler@@QEAAXAEBVNetworkIdentifier@@AEBVPlayerActionPacket@@@Z
?$handle@ServerNetworkHandler@@QEAAXAEBVNetworkIdentifier@@AEBVPlayerAuthInputPacket@@@Z
?$handle@ServerNetworkHandler@@QEAAXAEBVNetworkIdentifier@@AEBVSetLocalPlayerAsInitializedPacket@@@Z
?$handle@ServerNetworkHandler@@QEAAXAEBVNetworkIdentifier@@AEBVTextPacket@@@Z
?$handle@ServerNetworkHandler@@QEAAXAEBVNetworkIdentifier@@V?$shared_ptr@VBlockActorDataPacket@@@std@@@Z
?$hurtEffects@Mob@@QEAAXAEBVActorDamageSource@@M_N1@Z
?$isFeatureChunk@VillageFeature@@QEAA_NAEBVBiomeSource@@AEAVRandom@@AEBVChunkPos@@IAEBVIPreliminarySurfaceProvider@@AEBVDimension@@@Z
?$loadAllLanguages@I18nImpl@@QEAAXAEAVResourcePackManager@@@Z
?$loadData@DBStorage@@QEBA_NV?$basic_string_view@DU?$char_traits@D@std@@@std@@AEAV?$basic_string@DU?$char_traits@D@std@@V?$allocator@D@2@@3@W4Category@DBHelpers@@@Z
?$mayPlace@BlockSource@@QEAA_NAEBVBlock@@AEBVBlockPos@@EPEAVActor@@_NVVec3@@@Z
?$mayPlace@FireBlock@@QEBA_NAEAVBlockSource@@AEBVBlockPos@@@Z
?$normalTick@Actor@@QEAAXXZ
?$normalTick@Player@@QEAAXXZ
?$onBlockChanged@Dimension@@QEAAXAEAVBlockSource@@AEBVBlockPos@@IAEBVBlock@@2HPEBUActorBlockSyncMessage@@W4BlockChangedEventTarget@@PEAVActor@@@Z
?$onProjectileHit@TargetBlock@@QEBAXAEAVBlockSource@@AEBVBlockPos@@AEBVActor@@@Z
?$onRedstoneUpdate@ComparatorBlock@@QEBAXAEAVBlockSource@@AEBVBlockPos@@H_N@Z
?$onRedstoneUpdate@DiodeBlock@@QEBAXAEAVBlockSource@@AEBVBlockPos@@H_N@Z
?$onRedstoneUpdate@RedStoneWireBlock@@QEBAXAEAVBlockSource@@AEBVBlockPos@@H_N@Z
?$onRedstoneUpdate@RedstoneTorchBlock@@QEBAXAEAVBlockSource@@AEBVBlockPos@@H_N@Z
?$onScoreChanged@ServerScoreboard@@QEAAXAEBUScoreboardId@@AEBVObjective@@@Z
?$onServerThreadStarted@ServerScriptManager@@QEAA?AW4EventResult@@AEAVServerInstance@@@Z
?$openTrading@ServerPlayer@@QEAAXAEBUActorUniqueID@@_N@Z
?$playerPrepareRegion@PlayerDimensionTransferer@@QEAAXAEAVPlayer@@AEBVChangeDimensionRequest@@AEBVDimension@@@Z
?$receivePacket@BatchedNetworkPeer@@QEAA?AW4DataStatus@NetworkPeer@@AEAV?$basic_string@DU?$char_traits@D@std@@V?$allocator@D@2@@std@@AEBV?$shared_ptr@V?$time_point@Usteady_clock@chrono@std@@V?$duration@_JU?$ratio@$00$0DLJKMKAA@@std@@@23@@chrono@std@@@5@@Z
?$releaseSnapshot@DBStorage@@QEAAXXZ
?$removeItem@Container@@QEAAXHH@Z
?$removeSimulatedPlayer@MinecraftGameTestHelper@@QEAAXAEAVSimulatedPlayer@@@Z
?$requestPlayerChangeDimension@Level@@QEAAXAEAVPlayer@@$$QEAVChangeDimensionRequest@@@Z
?$respawn@Player@@QEAAXXZ
?$save@MovingBlockActor@@QEBA_NAEAVCompoundTag@@AEBVSaveContext@@@Z
?$saveData@DBStorage@@QEAA?AV?$shared_ptr@V?$IAsyncResult@X@Threading@Bedrock@@@std@@AEBV?$basic_string@DU?$char_traits@D@std@@V?$allocator@D@2@@3@$$QEAV43@W4Category@DBHelpers@@@Z
?$sendBroadcast@LoopbackPacketSender@@QEAAXAEBVNetworkIdentifier@@W4SubClientId@@AEBVPacket@@@Z
?$sendBroadcast@LoopbackPacketSender@@QEAAXAEBVPacket@@@Z
?$sendPacket@BatchedNetworkPeer@@QEAAXAEBV?$basic_string@DU?$char_traits@D@std@@V?$allocator@D@2@@std@@W4Reliability@NetworkPeer@@W4Compressibility@@@Z
?$sendPacket@RakNetNetworkPeer@RakNetConnector@@QEAAXAEBV?$basic_string@DU?$char_traits@D@std@@V?$allocator@D@2@@std@@W4Reliability@NetworkPeer@@W4Compressibility@@@Z
?$sendToClient@LoopbackPacketSender@@QEAAXAEBVNetworkIdentifier@@AEBVPacket@@W4SubClientId@@@Z
?$sendToClient@LoopbackPacketSender@@QEAAXPEBVUserEntityIdentifierComponent@@AEBVPacket@@@Z
?$sendToClients@LoopbackPacketSender@@QEAAXAEBV?$vector@UNetworkIdentifierWithSubId@@V?$allocator@UNetworkIdentifierWithSubId@@@std@@@std@@AEBVPacket@@@Z
?$setItem@DispenserBlockActor@@QEAAXHAEBVItemStack@@@Z
?$setItem@HopperBlockActor@@QEAAXHAEBVItemStack@@@Z
?$setPlayerGameType@ServerPlayer@@QEAAXW4GameType@@@Z
?$shouldTriggerEntityInside@BasePressurePlateBlock@@QEBA_NAEAVBlockSource@@AEBVBlockPos@@AEAVActor@@@Z
?$spawnItem@BedrockSpawner@@QEAAPEAVItemActor@@AEAVBlockSource@@AEBVItemStack@@PEAVActor@@AEBVVec3@@H@Z
?$spawnMob@Spawner@@QEAAPEAVMob@@AEAVBlockSource@@AEBUActorDefinitionIdentifier@@PEAVActor@@AEBVVec3@@_N44@Z
?$startRiding@Player@@QEAA_NAEAVActor@@_N@Z
?$startSleepInBed@Player@@QEAA?AW4BedSleepingResult@@AEBVBlockPos@@@Z
?$stop@BreedGoal@@QEAAXXZ
?$stopSleepInBed@Player@@QEAAX_N0@Z
?$teleportTo@FallingBlockActor@@QEAAXAEBVVec3@@_NHH1@Z
?$tick@BlockActor@@QEAAXAEAVBlockSource@@@Z
?$tick@Dimension@@QEAAXXZ
?$tick@EndermanLeaveBlockGoal@@QEAAXXZ
?$tick@EndermanTakeBlockGoal@@QEAAXXZ
?$tick@Level@@QEAAXXZ
?$tickRedstone@Dimension@@QEAAXXZ
?$transformOnFall@FarmBlock@@QEBAXAEAVBlockSource@@AEBVBlockPos@@PEAVActor@@M@Z
?$update@BatchedNetworkPeer@@QEAAXXZ
?$updateWeather@Level@@QEAAXMHMH@Z
?$use@BedBlock@@QEBA_NAEAVPlayer@@AEBVBlockPos@@E@Z
?$use@ItemFrameBlock@@QEBA_NAEAVPlayer@@AEBVBlockPos@@E@Z
?$useItem@Player@@QEAAXAEAVItemStackBase@@W4ItemUseMethod@@_N@Z
?$useItemOn@GameMode@@QEAA?AVInteractionResult@@AEAVItemStack@@AEBVBlockPos@@EAEBVVec3@@PEBVBlock@@_N@Z
?$useTimeDepleted@MedicineItem@@QEBA?AW4ItemUseMethod@@AEAVItemStack@@PEAVLevel@@PEAVPlayer@@@Z
?$useTimeDepleted@PotionItem@@QEBA?AW4ItemUseMethod@@AEAVItemStack@@PEAVLevel@@PEAVPlayer@@@Z
?$vftable@BucketItem@@SAPEAPEAXXZ
?$vftable@InternalHeapAllocator@Memory@Bedrock@@SAPEAPEAXXZ
?$vftable@LevelContainerModel@@SAPEAPEAXXZ
?$write@AddVolumeEntityPacket@@QEBAXAEAVBinaryStream@@@Z
?$write@ChangeDimensionPacket@@QEBAXAEAVBinaryStream@@@Z
?$write@ClientboundMapItemDataPacket@@QEBAXAEAVBinaryStream@@@Z
?$write@ContainerClosePacket@@QEBAXAEAVBinaryStream@@@Z
?$write@LevelChunkPacket@@QEBAXAEAVBinaryStream@@@Z
?$write@RemoveVolumeEntityPacket@@QEBAXAEAVBinaryStream@@@Z
?$write@ResourcePackStackPacket@@QEBAXAEAVBinaryStream@@@Z
?$write@ResourcePacksInfoPacket@@QEBAXAEAVBinaryStream@@@Z
?$write@StartGamePacket@@QEBAXAEAVBinaryStream@@@Z
?$write@SubChunkPacket@@QEBAXAEAVBinaryStream@@@Z
?$write@TextPacket@@QEBAXAEAVBinaryStream@@@Z
??$parse@H@CommandRegistry@@QEBA_NPEAXAEBUParseToken@0@AEBVCommandOrigin@@HAEAV?$basic_string@DU?$char_traits@D@std@@V?$allocator@D@2@@std@@AEAV?$vector@V?$basic_string@DU?$char_traits@D@std@@V?$allocator@D@2@@std@@V?$allocator@V?$basic_string@DU?$char_traits@D@std@@V?$allocator@D@2@@std@@@2@@4@@Z
??$parse@M@CommandRegistry@@QEBA_NPEAXAEBUParseToken@0@AEBVCommandOrigin@@HAEAV?$basic_string@DU?$char_traits@D@std@@V?$allocator@D@2@@std@@AEAV?$vector@V?$basic_string@DU?$char_traits@D@std@@V?$allocator@D@2@@std@@V?$allocator@V?$basic_string@DU?$char_traits@D@std@@V?$allocator@D@2@@std@@@2@@4@@Z
??$parse@V?$CommandSelector@VActor@@@@@CommandRegistry@@QEBA_NPEAXAEBUParseToken@0@AEBVCommandOrigin@@HAEAV?$basic_string@DU?$char_traits@D@std@@V?$allocator@D@2@@std@@AEAV?$vector@V?$basic_string@DU?$char_traits@D@std@@V?$allocator@D@2@@std@@V?$allocator@V?$basic_string@DU?$char_traits@D@std@@V?$allocator@D@2@@std@@@2@@4@@Z
??$parse@V?$CommandSelector@VPlayer@@@@@CommandRegistry@@QEBA_NPEAXAEBUParseToken@0@AEBVCommandOrigin@@HAEAV?$basic_string@DU?$char_traits@D@std@@V?$allocator@D@2@@std@@AEAV?$vector@V?$basic_string@DU?$char_traits@D@std@@V?$allocator@D@2@@std@@V?$allocator@V?$basic_string@DU?$char_traits@D@std@@V?$allocator@D@2@@std@@@2@@4@@Z
??$parse@V?$WildcardCommandSelector@VActor@@@@@CommandRegistry@@QEBA_NPEAXAEBUParseToken@0@AEBVCommandOrigin@@HAEAV?$basic_string@DU?$char_traits@D@std@@V?$allocator@D@2@@std@@AEAV?$vector@V?$basic_string@DU?$char_traits@D@std@@V?$allocator@D@2@@std@@V?$allocator@V?$basic_string@DU?$char_traits@D@std@@V?$allocator@D@2@@std@@@2@@4@@Z
??$parse@V?$basic_string@DU?$char_traits@D@std@@V?$allocator@D@2@@std@@@CommandRegistry@@QEBA_NPEAXAEBUParseToken@0@AEBVCommandOrigin@@HAEAV?$basic_string@DU?$char_traits@D@std@@V?$allocator@D@2@@std@@AEAV?$vector@V?$basic_string@DU?$char_traits@D@std@@V?$allocator@D@2@@std@@V?$allocator@V?$basic_string@DU?$char_traits@D@std@@V?$allocator@D@2@@std@@@2@@4@@Z
??$parse@V?$unique_ptr@VCommand@@U?$default_delete@VCommand@@@std@@@std@@@CommandRegistry@@QEBA_NPEAXAEBUParseToken@0@AEBVCommandOrigin@@HAEAV?$basic_string@DU?$char_traits@D@std@@V?$allocator@D@2@@std@@AEAV?$vector@V?$basic_string@DU?$char_traits@D@std@@V?$allocator@D@2@@std@@V?$allocator@V?$basic_string@DU?$char_traits@D@std@@V?$allocator@D@2@@std@@@2@@4@@Z
??$parse@V?$vector@VBlockStateCommandParam@@V?$allocator@VBlockStateCommandParam@@@std@@@std@@@CommandRegistry@@QEBA_NPEAXAEBUParseToken@0@AEBVCommandOrigin@@HAEAV?$basic_string@DU?$char_traits@D@std@@V?$allocator@D@2@@std@@AEAV?$vector@V?$basic_string@DU?$char_traits@D@std@@V?$allocator@D@2@@std@@V?$allocator@V?$basic_string@DU?$char_traits@D@std@@V?$allocator@D@2@@std@@@2@@4@@Z
??$parse@VCommandFilePath@@@CommandRegistry@@QEBA_NPEAXAEBUParseToken@0@AEBVCommandOrigin@@HAEAV?$basic_string@DU?$char_traits@D@std@@V?$allocator@D@2@@std@@AEAV?$vector@V?$basic_string@DU?$char_traits@D@std@@V?$allocator@D@2@@std@@V?$allocator@V?$basic_string@DU?$char_traits@D@std@@V?$allocator@D@2@@std@@@2@@4@@Z
??$parse@VCommandIntegerRange@@@CommandRegistry@@QEBA_NPEAXAEBUParseToken@0@AEBVCommandOrigin@@HAEAV?$basic_string@DU?$char_traits@D@std@@V?$allocator@D@2@@std@@AEAV?$vector@V?$basic_string@DU?$char_traits@D@std@@V?$allocator@D@2@@std@@V?$allocator@V?$basic_string@DU?$char_traits@D@std@@V?$allocator@D@2@@std@@@2@@4@@Z
??$parse@VCommandMessage@@@CommandRegistry@@QEBA_NPEAXAEBUParseToken@0@AEBVCommandOrigin@@HAEAV?$basic_string@DU?$char_traits@D@std@@V?$allocator@D@2@@std@@AEAV?$vector@V?$basic_string@DU?$char_traits@D@std@@V?$allocator@D@2@@std@@V?$allocator@V?$basic_string@DU?$char_traits@D@std@@V?$allocator@D@2@@std@@@2@@4@@Z
??$parse@VCommandPosition@@@CommandRegistry@@QEBA_NPEAXAEBUParseToken@0@AEBVCommandOrigin@@HAEAV?$basic_string@DU?$char_traits@D@std@@V?$allocator@D@2@@std@@AEAV?$vector@V?$basic_string@DU?$char_traits@D@std@@V?$allocator@D@2@@std@@V?$allocator@V?$basic_string@DU?$char_traits@D@std@@V?$allocator@D@2@@std@@@2@@4@@Z
??$parse@VCommandPositionFloat@@@CommandRegistry@@QEBA_NPEAXAEBUParseToken@0@AEBVCommandOrigin@@HAEAV?$basic_string@DU?$char_traits@D@std@@V?$allocator@D@2@@std@@AEAV?$vector@V?$basic_string@DU?$char_traits@D@std@@V?$allocator@D@2@@std@@V?$allocator@V?$basic_string@DU?$char_traits@D@std@@V?$allocator@D@2@@std@@@2@@4@@Z
??$parse@VCommandRawText@@@CommandRegistry@@QEBA_NPEAXAEBUParseToken@0@AEBVCommandOrigin@@HAEAV?$basic_string@DU?$char_traits@D@std@@V?$allocator@D@2@@std@@AEAV?$vector@V?$basic_string@DU?$char_traits@D@std@@V?$allocator@D@2@@std@@V?$allocator@V?$basic_string@DU?$char_traits@D@std@@V?$allocator@D@2@@std@@@2@@4@@Z
??$parse@VCommandWildcardInt@@@CommandRegistry@@QEBA_NPEAXAEBUParseToken@0@AEBVCommandOrigin@@HAEAV?$basic_string@DU?$char_traits@D@std@@V?$allocator@D@2@@std@@AEAV?$vector@V?$basic_string@DU?$char_traits@D@std@@V?$allocator@D@2@@std@@V?$allocator@V?$basic_string@DU?$char_traits@D@std@@V?$allocator@D@2@@std@@@2@@4@@Z
??$parse@VRelativeFloat@@@CommandRegistry@@QEBA_NPEAXAEBUParseToken@0@AEBVCommandOrigin@@HAEAV?$basic_string@DU?$char_traits@D@std@@V?$allocator@D@2@@std@@AEAV?$vector@V?$basic_string@DU?$char_traits@D@std@@V?$allocator@D@2@@std@@V?$allocator@V?$basic_string@DU?$char_traits@D@std@@V?$allocator@D@2@@std@@@2@@4@@Z
??$parse@VValue@Json@@@CommandRegistry@@QEBA_NPEAXAEBUParseToken@0@AEBVCommandOrigin@@HAEAV?$basic_string@DU?$char_traits@D@std@@V?$allocator@D@2@@std@@AEAV?$vector@V?$basic_string@DU?$char_traits@D@std@@V?$allocator@D@2@@std@@V?$allocator@V?$basic_string@DU?$char_traits@D@std@@V?$allocator@D@2@@std@@@2@@4@@Z
??$set@V?$basic_string@DU?$char_traits@D@std@@V?$allocator@D@2@@std@@@SynchedActorDataEntityWrapper@@QEAAXGAEBV?$basic_string@DU?$char_traits@D@std@@V?$allocator@D@2@@std@@@Z
??$type_id@VCommandRegistry@@H@Bedrock@@YA?AV?$typeid_t@VCommandRegistry@@@0@XZ
??$type_id@VCommandRegistry@@M@Bedrock@@YA?AV?$typeid_t@VCommandRegistry@@@0@XZ
??$type_id@VCommandRegistry@@V?$CommandSelector@VActor@@@@@Bedrock@@YA?AV?$typeid_t@VCommandRegistry@@@0@XZ
??$type_id@VCommandRegistry@@V?$CommandSelector@VPlayer@@@@@Bedrock@@YA?AV?$typeid_t@VCommandRegistry@@@0@XZ
??$type_id@VCommandRegistry@@V?$WildcardCommandSelector@VActor@@@@@Bedrock@@YA?AV?$typeid_t@VCommandRegistry@@@0@XZ
??$type_id@VCommandRegistry@@V?$basic_string@DU?$char_traits@D@std@@V?$allocator@D@2@@std@@@Bedrock@@YA?AV?$typeid_t@VCommandRegistry@@@0@XZ
??$type_id@VCommandRegistry@@V?$unique_ptr@VCommand@@U?$default_delete@VCommand@@@std@@@std@@@Bedrock@@YA?AV?$typeid_t@VCommandRegistry@@@0@XZ
??$type_id@VCommandRegistry@@V?$vector@VBlockStateCommandParam@@V?$allocator@VBlockStateCommandParam@@@std@@@std@@@Bedrock@@YA?AV?$typeid_t@VCommandRegistry@@@0@XZ
??$type_id@VCommandRegistry@@VCommandBlockName@@@Bedrock@@YA?AV?$typeid_t@VCommandRegistry@@@0@XZ
??$type_id@VCommandRegistry@@VCommandFilePath@@@Bedrock@@YA?AV?$typeid_t@VCommandRegistry@@@0@XZ
??$type_id@VCommandRegistry@@VCommandMessage@@@Bedrock@@YA?AV?$typeid_t@VCommandRegistry@@@0@XZ
??$type_id@VCommandRegistry@@VCommandPosition@@@Bedrock@@YA?AV?$typeid_t@VCommandRegistry@@@0@XZ
??$type_id@VCommandRegistry@@VCommandPositionFloat@@@Bedrock@@YA?AV?$typeid_t@VCommandRegistry@@@0@XZ
??$type_id@VCommandRegistry@@VCommandRawText@@@Bedrock@@YA?AV?$typeid_t@VCommandRegistry@@@0@XZ
??$type_id@VCommandRegistry@@VCommandWildcardInt@@@Bedrock@@YA?AV?$typeid_t@VCommandRegistry@@@0@XZ
??$type_id@VCommandRegistry@@VRelativeFloat@@@Bedrock@@YA?AV?$typeid_t@VCommandRegistry@@@0@XZ
??$type_id@VCommandRegistry@@VValue@Json@@@Bedrock@@YA?AV?$typeid_t@VCommandRegistry@@@0@XZ
??$type_id@VCommandRegistry@@_N@Bedrock@@YA?AV?$typeid_t@VCommandRegistry@@@0@XZ
??$writeType@VNetworkItemStackDescriptor@@@BinaryStream@@QEAAXAEBVNetworkItemStackDescriptor@@PEBD1@Z
??0AABB@@QEAA@MMMMMM@Z
??0ActorCommandOrigin@@QEAA@AEAVActor@@@Z
??0ActorDamageByActorSource@@QEAA@AEBVActor@@W4ActorDamageCause@Legacy@SharedTypes@@@Z
??0ActorDefinitionIdentifier@@QEAA@$$QEAU0@@Z
??0ActorDefinitionIdentifier@@QEAA@AEBU0@@Z
??0ActorDefinitionIdentifier@@QEAA@AEBV?$basic_string@DU?$char_traits@D@std@@V?$allocator@D@2@@std@@@Z
??0ActorDefinitionIdentifier@@QEAA@W4ActorType@@@Z
??0ActorDefinitionIdentifier@@QEAA@XZ
??0AddPlayerPacket@@QEAA@AEAVPlayer@@@Z
??0BinaryStream@@QEAA@AEAV?$basic_string@DU?$char_traits@D@std@@V?$allocator@D@2@@std@@_N@Z
??0BinaryStream@@QEAA@XZ
??0BlockPos@@QEAA@AEBVVec3@@@Z
??0BlockPos@@QEAA@HHH@Z
??0BlockPos@@QEAA@MMM@Z
??0BlockSource@@QEAA@AEAVLevel@@AEAVDimension@@AEAVChunkSource@@_N33@Z
??0BossEventPacket@@QEAA@XZ
??0ChunkBlockPos@@QEAA@AEBVBlockPos@@F@Z
??0ChunkPos@@QEAA@AEBVBlockPos@@@Z
??0ChunkPos@@QEAA@AEBVVec3@@@Z
??0Command@@QEAA@XZ
??0CommandBlockName@@QEAA@_K@Z
??0CommandContext@@QEAA@AEBV?$basic_string@DU?$char_traits@D@std@@V?$allocator@D@2@@std@@V?$unique_ptr@VCommandOrigin@@U?$default_delete@VCommandOrigin@@@std@@@2@H@Z
??0CommandIntegerRange@@QEAA@XZ
??0CommandItem@@QEAA@XZ
??0CommandOrigin@@QEAA@XZ
??0CommandOutput@@QEAA@W4CommandOutputType@@@Z
??0CommandOutputMessage@@QEAA@$$QEAV0@@Z
??0CommandOutputMessage@@QEAA@AEBV0@@Z
??0CommandOutputMessage@@QEAA@W4CommandOutputMessageType@@AEBV?$basic_string@DU?$char_traits@D@std@@V?$allocator@D@2@@std@@$$QEAV?$vector@V?$basic_string@DU?$char_traits@D@std@@V?$allocator@D@2@@std@@V?$allocator@V?$basic_string@DU?$char_traits@D@std@@V?$allocator@D@2@@std@@@2@@3@@Z
??0CommandOutputParameter@@QEAA@AEBV?$CommandSelectorResults@VActor@@@@@Z
??0CommandOutputParameter@@QEAA@AEBV?$vector@V?$basic_string@DU?$char_traits@D@std@@V?$allocator@D@2@@std@@V?$allocator@V?$basic_string@DU?$char_traits@D@std@@V?$allocator@D@2@@std@@@2@@std@@@Z
??0CommandPosition@@QEAA@AEBVVec3@@@Z
??0CommandPosition@@QEAA@XZ
??0DBStorageConfig@@QEAA@$$QEAU0@@Z
??0Dimension@@QEAA@AEAVILevel@@V?$AutomaticID@VDimension@@H@@VDimensionHeightRange@@AEAVScheduler@@V?$basic_string@DU?$char_traits@D@std@@V?$allocator@D@2@@std@@@Z
??0ExpressionNode@@QEAA@XZ
??0FlatWorldGenerator@@QEAA@AEAVDimension@@IAEBVValue@Json@@@Z
??0FullPlayerInventoryWrapper@@QEAA@AEAVPlayer@@@Z
??0GameRuleId@@QEAA@H@Z
??0HitResult@@QEAA@AEBV0@@Z
??0HitResult@@QEAA@AEBVVec3@@0AEAVActor@@0@Z
??0HitResult@@QEAA@XZ
??0InventorySlotPacket@@QEAA@W4ContainerID@@IAEBVItemStack@@@Z
??0ItemInstance@@QEAA@AEBVItemStackBase@@@Z
??0ItemInstance@@QEAA@V?$basic_string_view@DU?$char_traits@D@std@@@std@@HHPEBVCompoundTag@@@Z
??0ItemStack@@QEAA@AEBV0@@Z
??0ItemStack@@QEAA@AEBVBlock@@HPEBVCompoundTag@@@Z
??0ItemStack@@QEAA@AEBVBlockLegacy@@H@Z
??0ItemStack@@QEAA@AEBVItem@@HHPEBVCompoundTag@@@Z
??0ItemStack@@QEAA@AEBVItemInstance@@@Z
??0ItemStack@@QEAA@AEBVRecipeIngredient@@@Z
??0ItemStack@@QEAA@V?$basic_string_view@DU?$char_traits@D@std@@@std@@HHPEBVCompoundTag@@@Z
??0ItemStack@@QEAA@XZ
??0LayeredAbilities@@QEAA@AEBV0@@Z
??0LevelEventPacket@@QEAA@W4LevelEvent@@AEBVVec3@@H@Z
??0MinEngineVersion@@QEAA@AEBVSemVersion@@@Z
??0MobEffectInstance@@QEAA@$$QEAV0@@Z
??0MobEffectInstance@@QEAA@AEBV0@@Z
??0MobEffectInstance@@QEAA@IUEffectDuration@@H_N11@Z
??0ModalFormRequestPacket@@QEAA@IAEBV?$basic_string@DU?$char_traits@D@std@@V?$allocator@D@2@@std@@@Z
??0MolangMemberArray@@QEAA@W4MolangStruct_RGBA@@AEBVColor@mce@@@Z
??0MolangMemberArray@@QEAA@W4MolangStruct_XY@@AEBVVec2@@@Z
??0MolangMemberArray@@QEAA@W4MolangStruct_XYZ@@AEBVVec3@@@Z
??0MolangMemberVariable@@QEAA@AEBU0@@Z
??0MolangScriptArg@@QEAA@M@Z
??0MolangVariable@@QEAA@AEBV0@@Z
??0MolangVariableMap@@QEAA@$$QEAV0@@Z
??0MolangVariableMap@@QEAA@XZ
??0NetherGenerator@@QEAA@AEAVDimension@@IPEBVBiome@@@Z
??0NetworkItemStackDescriptor@@QEAA@AEBVItemStack@@@Z
??0OverworldGeneratorMultinoise@@QEAA@AEAVDimension@@VLevelSeed64@@PEBVBiome@@@Z
??0PlayerListEntry@@QEAA@AEBVPlayer@@@Z
??0PlayerListEntry@@QEAA@VUUID@mce@@@Z
??0PlayerListEntry@@QEAA@XZ
??0PlayerListPacket@@QEAA@XZ
??0PlayerScoreboardId@@QEAA@XZ
??0PlayerScoreboardId@@QEAA@_J@Z
??0ReadOnlyBinaryStream@@QEAA@V?$basic_string_view@DU?$char_traits@D@std@@@std@@_N@Z
??0Reader@Json@@QEAA@XZ
??0RecipeIngredient@@QEAA@AEBV0@@Z
??0RecipeIngredient@@QEAA@V?$basic_string_view@DU?$char_traits@D@std@@@std@@HG@Z
??0RecipeUnlockingRequirement@@QEAA@XZ
??0RedactableString@Safety@Bedrock@@QEAA@AEBV?$basic_string@DU?$char_traits@D@std@@V?$allocator@D@2@@std@@@Z
??0RemoveActorPacket@@QEAA@UActorUniqueID@@@Z
??0ScoreboardId@@QEAA@AEBU0@@Z
??0ScoreboardId@@QEAA@XZ
??0ScoreboardId@@QEAA@_J@Z
??0ScriptCommandOrigin@@QEAA@AEAVServerLevel@@PEAVDimension@@V?$function@$$A6AXH$$QEAV?$basic_string@DU?$char_traits@D@std@@V?$allocator@D@2@@std@@@Z@std@@V?$optional@W4CommandPermissionLevel@@@4@@Z
??0SemVersion@@QEAA@AEBV0@@Z
??0SemVersion@@QEAA@GGGAEBV?$basic_string@DU?$char_traits@D@std@@V?$allocator@D@2@@std@@0@Z
??0SemVersion@@QEAA@XZ
??0SerializedAbilitiesData@@QEAA@UActorUniqueID@@AEBVLayeredAbilities@@@Z
??0SerializedSkin@@QEAA@AEBV0@@Z
??0SerializedSkin@@QEAA@AEBVConnectionRequest@@@Z
??0ServerCommandOrigin@@QEAA@AEBV?$basic_string@DU?$char_traits@D@std@@V?$allocator@D@2@@std@@AEAVServerLevel@@W4CommandPermissionLevel@@V?$AutomaticID@VDimension@@H@@@Z
??0SetActorDataPacket@@QEAA@VActorRuntimeID@@AEAVSynchedActorDataEntityWrapper@@PEAVPropertyComponent@@_K_N@Z
??0SetDisplayObjectivePacket@@QEAA@AEBV?$basic_string@DU?$char_traits@D@std@@V?$allocator@D@2@@std@@000W4ObjectiveSortOrder@@@Z
??0SetSpawnPositionPacket@@QEAA@W4SpawnPositionType@@V?$AutomaticID@VDimension@@H@@AEBVBlockPos@@@Z
??0SetTimePacket@@QEAA@H@Z
??0SetTitlePacket@@QEAA@W4TitleType@0@@Z
??0SetTitlePacket@@QEAA@W4TitleType@0@AEBV?$basic_string@DU?$char_traits@D@std@@V?$allocator@D@2@@std@@V?$optional@V?$basic_string@DU?$char_traits@D@std@@V?$allocator@D@2@@std@@@3@@Z
??0SpawnParticleEffectPacket@@QEAA@AEBVVec3@@AEBV?$basic_string@DU?$char_traits@D@std@@V?$allocator@D@2@@std@@EV?$optional@VMolangVariableMap@@@3@@Z
??0SpawnSettings@@QEAA@AEBU0@@Z
??0StackResultStorageEntity@@QEAA@AEBVWeakStorageEntity@@@Z
??0StringByteInput@@QEAA@V?$basic_string_view@DU?$char_traits@D@std@@@std@@@Z
??0StructureSettings@@QEAA@XZ
??0StructureTemplate@@QEAA@V?$basic_string_view@DU?$char_traits@D@std@@@std@@V?$NonOwnerPointer@VIUnknownBlockTypeRegistry@@@Bedrock@@@Z
??0SynchedActorDataEntityWrapper@@QEAA@AEAVEntityContext@@@Z
??0SystemAddress@RakNet@@QEAA@XZ
??0TextPacket@@QEAA@XZ
??0TheEndGenerator@@QEAA@AEAVDimension@@IPEBVBiome@@@Z
??0ToastRequestPacket@@QEAA@AEBV?$basic_string@DU?$char_traits@D@std@@V?$allocator@D@2@@std@@0@Z
??0ToastRequestPacket@@QEAA@XZ
??0TransferPacket@@QEAA@AEBV?$basic_string@DU?$char_traits@D@std@@V?$allocator@D@2@@std@@H@Z
??0UpdateBlockPacket@@QEAA@AEBVBlockPos@@IIE@Z
??0UpdatePlayerGameTypePacket@@QEAA@W4GameType@@AEBUActorUniqueID@@_K@Z
??0Value@Json@@QEAA@$$QEAV01@@Z
??0Value@Json@@QEAA@AEBV01@@Z
??0Value@Json@@QEAA@AEBV?$basic_string@DU?$char_traits@D@std@@V?$allocator@D@2@@std@@@Z
??0Value@Json@@QEAA@W4ValueType@1@@Z
??0VoidGenerator@@QEAA@AEAVDimension@@@Z
??1ActorDamageByActorSource@@UEAA@XZ
??1ActorDefinitionIdentifier@@QEAA@XZ
??1ActorDefinitionTrigger@@QEAA@XZ
??1ActorGriefingBlockEvent@@QEAA@XZ
??1ActorStopRidingEvent@@QEAA@XZ
??1AddPlayerPacket@@UEAA@XZ
??1AvailableCommandsPacket@@UEAA@XZ
??1BigEndianStringByteInput@@UEAA@XZ
??1BigEndianStringByteOutput@@UEAA@XZ
??1BinaryStream@@UEAA@XZ
??1BlockSource@@UEAA@XZ
??1BlockSourceListener@@UEAA@XZ
??1BlockStateCommandParam@@QEAA@XZ
??1BossEventPacket@@UEAA@XZ
??1BuildInfo@Common@@QEAA@XZ
??1CallStack@Bedrock@@QEAA@XZ
??1ChangeDimensionPacket@@UEAA@XZ
??1ChunkGeneratorStructureState@worldgen@br@@QEAA@XZ
??1ChunkLocalNoiseCache@@QEAA@XZ
??1Command@@UEAA@XZ
??1CommandBlockNameResult@@QEAA@XZ
??1CommandContext@@QEAA@XZ
??1CommandOutput@@QEAA@XZ
??1CommandOutputMessage@@QEAA@XZ
??1CommandOutputParameter@@QEAA@XZ
??1CommandSelectorBase@@QEAA@XZ
??1DBStorageConfig@@QEAA@XZ
??1Dimension@@UEAA@XZ
??1ExpressionNode@@QEAA@XZ
??1FrameWithContext@CallStack@Bedrock@@QEAA@XZ
??1HitResult@@QEAA@XZ
??1InventorySlotPacket@@UEAA@XZ
??1ItemInstance@@UEAA@XZ
??1ItemRegistryRef@@QEAA@XZ
??1ItemStack@@UEAA@XZ
??1LevelEventPacket@@UEAA@XZ
??1MinEngineVersion@@QEAA@XZ
??1MobEffectInstance@@QEAA@XZ
??1ModalFormRequestPacket@@UEAA@XZ
??1MolangActorArrayPtr@@QEAA@XZ
??1MolangActorIdArrayPtr@@QEAA@XZ
??1MolangArrayVariable@@QEAA@XZ
??1MolangContextVariable@@QEAA@XZ
??1MolangDataDrivenGeometry@@QEAA@XZ
??1MolangEntityVariable@@QEAA@XZ
??1MolangGeometryVariable@@QEAA@XZ
??1MolangMaterialVariable@@QEAA@XZ
??1MolangMemberAccessor@@QEAA@XZ
??1MolangMemberArray@@QEAA@XZ
??1MolangMemberVariable@@QEAA@XZ
??1MolangQueryFunctionPtr@@QEAA@XZ
??1MolangScriptArg@@QEAA@XZ
??1MolangTempVariable@@QEAA@XZ
??1MolangTextureVariable@@QEAA@XZ
??1MolangVariable@@QEAA@XZ
??1MolangVariableMap@@QEAA@XZ
??1NameInfo@BlockLegacy@@QEAA@XZ
??1NetworkItemStackDescriptor@@UEAA@XZ
??1NewUniqueIdsDataLoadHelper@@UEAA@XZ
??1OwnerStorageEntity@@QEAA@XZ
??1PackIdVersion@@QEAA@XZ
??1Packet@@UEAA@XZ
??1PlayerActionPacket@@UEAA@XZ
??1PlayerFogPacket@@UEAA@XZ
??1PlayerListEntry@@QEAA@XZ
??1PlayerListPacket@@UEAA@XZ
??1ProjectileHitEvent@@QEAA@XZ
??1ReadOnlyBinaryStream@@UEAA@XZ
??1Reader@Json@@QEAA@XZ
??1RecipeIngredient@@UEAA@XZ
??1RecipeUnlockingRequirement@@QEAA@XZ
??1RedactableString@Safety@Bedrock@@QEAA@XZ
??1RemoveActorPacket@@UEAA@XZ
??1ResourceDrops@@QEAA@XZ
??1ScorePacketInfo@@QEAA@XZ
??1SemVersion@@QEAA@XZ
??1SerializedAbilitiesData@@QEAA@XZ
??1SerializedSkin@@QEAA@XZ
??1ServerCommandOrigin@@UEAA@XZ
??1SetActorDataPacket@@UEAA@XZ
??1SetDisplayObjectivePacket@@UEAA@XZ
??1SetScorePacket@@UEAA@XZ
??1SetSpawnPositionPacket@@UEAA@XZ
??1SetTimePacket@@UEAA@XZ
??1SetTitlePacket@@UEAA@XZ
??1SpawnParticleEffectPacket@@UEAA@XZ
??1SpawnSettings@@QEAA@XZ
??1StringByteInput@@UEAA@XZ
??1StringByteOutput@@UEAA@XZ
??1StructureSettings@@QEAA@XZ
??1SynchedActorDataEntityWrapper@@QEAA@XZ
??1TeleportTarget@@QEAA@XZ
??1TextPacket@@UEAA@XZ
??1TickDataSet@BlockTickingQueue@@QEAA@XZ
??1ToastRequestPacket@@UEAA@XZ
??1TransferPacket@@UEAA@XZ
??1Type@Recipes@@QEAA@XZ
??1UpdateAbilitiesPacket@@UEAA@XZ
??1UpdateAdventureSettingsPacket@@UEAA@XZ
??1UpdateBlockPacket@@UEAA@XZ
??1UpdatePlayerGameTypePacket@@UEAA@XZ
??1Value@Json@@QEAA@XZ
??1VarIntDataInput@@UEAA@XZ
??1VarIntDataOutput@@UEAA@XZ
??1WorldGenerator@@UEAA@XZ
??4ChunkGeneratorStructureState@worldgen@br@@QEAAAEAU012@$$QEAU012@@Z
??4HitResult@@QEAAAEAV0@$$QEAV0@@Z
??4ItemStack@@QEAAAEAV0@AEBV0@@Z
??4ItemStackBase@@QEAAAEAV0@AEBV0@@Z
??4MobEffectInstance@@QEAAAEAV0@$$QEAV0@@Z
??4ScoreboardId@@QEAAAEAU0@AEBU0@@Z
??4SemVersion@@QEAAAEAV0@AEBV0@@Z
??8ItemStackBase@@QEBA_NAEBV0@@Z
??8NetworkIdentifier@@QEBA_NAEBV0@@Z
??9ItemStackBase@@QEBA_NAEBV0@@Z
??9ValueIteratorBase@Json@@QEBA_NAEBV01@@Z
??AValue@Json@@QEAAAEAV01@PEBD@Z
??AValue@Json@@QEBAAEBV01@AEBV?$basic_string@DU?$char_traits@D@std@@V?$allocator@D@2@@std@@@Z
??AValue@Json@@QEBAAEBV01@PEBD@Z
??BBlockPos@@QEBA?AVVec3@@XZ
??BItemStackBase@@QEBA_NXZ
??DValueConstIterator@Json@@QEBAAEBVValue@1@XZ
??EValueConstIterator@Json@@QEAAAEAV01@XZ
??GBlockPos@@QEBA?AV0@AEBV0@@Z
??NSemVersion@@QEBA_NAEBV0@@Z
??OTickNextTickData@@QEBA_NAEBV0@@Z
??PSemVersion@@QEBA_NAEBV0@@Z
?ABSORPTION@SharedAttributes@@SAAEBVAttribute@@XZ
?ATTACK_DAMAGE@SharedAttributes@@SAAEBVAttribute@@XZ
?Air@BedrockBlockNames@@YAAEBVHashedString@@XZ
?Anvil@VanillaBlockTypeIds@@YAAEBVHashedString@@XZ
?BLACK@Color@mce@@SAAEBV12@XZ
?BLUE@Color@mce@@SAAEBV12@XZ
?Bedrock@VanillaBlockTypeIds@@YAAEBVHashedString@@XZ
?BedrockLogOut@@YAXIPEBDZZ
?CYAN@Color@mce@@SAAEBV12@XZ
?Chest@VanillaBlockTypeIds@@YAAEBVHashedString@@XZ
?Compass@VanillaItemNames@@YAAEBVHashedString@@XZ
?CurrentVersion@CommandVersion@@SAAEBHXZ
?DimensionMap@VanillaDimensions@@SAAEBV?$BidirectionalUnorderedMap@V?$basic_string@DU?$char_traits@D@std@@V?$allocator@D@2@@std@@V?$AutomaticID@VDimension@@H@@@@XZ
?Dirt@VanillaBlockTypeIds@@YAAEBVHashedString@@XZ
?DragonEgg@VanillaBlockTypeIds@@YAAEBVHashedString@@XZ
?EMPTY@UUID@mce@@SAAEAV12@XZ
?EMPTY_ITEM@ItemStack@@SAAEBV1@XZ
?EXPERIENCE@Player@@SAAEBVAttribute@@XZ
?FOLLOW_RANGE@SharedAttributes@@SAAEBVAttribute@@XZ
?GREEN@Color@mce@@SAAEBV12@XZ
?GREY@Color@mce@@SAAEBV12@XZ
?HEALTH@SharedAttributes@@SAAEBVAttribute@@XZ
?HUNGER@Player@@SAAEBVAttribute@@XZ
?INVALID@ScoreboardId@@SAAEAU1@XZ
?INVALID_ABILITY@Abilities@@SAAEAVAbility@@XZ
?INVALID_ID@ActorUniqueID@@SAAEBU1@XZ
?JUMP_STRENGTH@SharedAttributes@@SAAEBVAttribute@@XZ
?KNOCKBACK_RESISTANCE@SharedAttributes@@SAAEBVAttribute@@XZ
?LAVA_MOVEMENT_SPEED@SharedAttributes@@SAAEBVAttribute@@XZ
?LEVEL@Player@@SAAEBVAttribute@@XZ
?LUCK@SharedAttributes@@SAAEBVAttribute@@XZ
?LodestoneCompass@VanillaItemNames@@YAAEBVHashedString@@XZ
?MAX@Brightness@@SAAEBU1@XZ
?MCRESULT_CommandsDisabled@@YAAEBUMCRESULT@@XZ
?MINECOIN_GOLD@Color@mce@@SAAEBV12@XZ
?MOVEMENT_SPEED@SharedAttributes@@SAAEBVAttribute@@XZ
?Nether@VanillaDimensions@@SAAEBV?$AutomaticID@VDimension@@H@@XZ
?NetworkProtocolVersion@SharedConstants@@YAAEBHXZ
?ONE@BlockPos@@SAAEBV1@XZ
?ORANGE@Color@mce@@SAAEBV12@XZ
?Ocean@VanillaBiomeNames@@YAAEBVHashedString@@XZ
?Overworld@VanillaDimensions@@SAAEBV?$AutomaticID@VDimension@@H@@XZ
?PINK@Color@mce@@SAAEBV12@XZ
?PURPLE@Color@mce@@SAAEBV12@XZ
?Plains@VanillaBiomeNames@@YAAEBVHashedString@@XZ
?REBECCA_PURPLE@Color@mce@@SAAEBV12@XZ
?RED@Color@mce@@SAAEBV12@XZ
?RecoveryCompass@VanillaItemNames@@YAAEBVHashedString@@XZ
?RevisionVersion@SharedConstants@@YAAEBHXZ
?SATURATION@Player@@SAAEBVAttribute@@XZ
?Send_Windows_Linux_360NoVDP@RNS2_Windows_Linux_360@RakNet@@SAHHPEAURNS2_SendParameters@2@PEBDI@Z
?TheEnd@VanillaDimensions@@SAAEBV?$AutomaticID@VDimension@@H@@XZ
?ToString@SystemAddress@RakNet@@QEBA?AV?$basic_string@DU?$char_traits@D@std@@V?$allocator@D@2@@std@@D@Z
?UNASSIGNED_SYSTEM_ADDRESS@RakNet@@YAAEBUSystemAddress@1@XZ
?UNDERWATER_MOVEMENT_SPEED@SharedAttributes@@SAAEBVAttribute@@XZ
?Undefined@VanillaDimensions@@SAAEBV?$AutomaticID@VDimension@@H@@XZ
?WHITE@Color@mce@@SAAEBV12@XZ
?YELLOW@Color@mce@@SAAEBV12@XZ
?ZERO@Vec3@@SAAEBV1@XZ
?_addEnumValuesInternal@CommandRegistry@@QEAA?AVSymbol@1@AEBV?$basic_string@DU?$char_traits@D@std@@V?$allocator@D@2@@std@@AEBV?$vector@U?$pair@V?$basic_string@DU?$char_traits@D@std@@V?$allocator@D@2@@std@@_K@std@@V?$allocator@U?$pair@V?$basic_string@DU?$char_traits@D@std@@V?$allocator@D@2@@std@@_K@std@@@2@@4@V?$typeid_t@VCommandRegistry@@@Bedrock@@P81@EBA_NPEAXAEBUParseToken@1@AEBVCommandOrigin@@HAEAV34@AEAV?$vector@V?$basic_string@DU?$char_traits@D@std@@V?$allocator@D@2@@std@@V?$allocator@V?$basic_string@DU?$char_traits@D@std@@V?$allocator@D@2@@std@@@2@@4@@Z@Z
?_addItem@Hopper@@QEAA_NAEAVBlockSource@@AEAVContainer@@AEAVItemStack@@HH@Z
?_addSurfaceBiome@OverworldBiomeBuilder@@QEBAXAEAV?$vector@UBiomeNoiseTarget@@V?$allocator@UBiomeNoiseTarget@@@std@@@std@@AEBUParameter@ClimateUtils@@1111MPEAVBiome@@@Z
?_addUndergroundBiome@OverworldBiomeBuilder@@QEBAXAEAV?$vector@UBiomeNoiseTarget@@V?$allocator@UBiomeNoiseTarget@@@std@@@std@@AEBUParameter@ClimateUtils@@1111MPEAVBiome@@@Z
?_appendLogEntryMetadata@LogDetails@BedrockLog@@QEAAXAEAV?$basic_string@DU?$char_traits@D@std@@V?$allocator@D@2@@std@@V34@W4LogAreaID@@I1HH@Z
?_attachedBlockWalker@PistonBlockActor@@QEAA_NAEAVBlockSource@@AEBVBlockPos@@EE@Z
?_attack@Player@@QEAA_NAEAVActor@@AEBW4ActorDamageCause@Legacy@SharedTypes@@_N@Z
?_attemptPlaceSculk@SculkVeinBlockBehavior@@SA_NAEAVIBlockWorldGenAPI@@PEAVBlockSource@@AEBVBlockPos@@AEAVSculkSpreader@@AEAVRandom@@@Z
?_attemptTeleport@DragonEggBlock@@SAXAEAVBlockSource@@AEAVRandom@@AEBVBlockPos@@@Z
?_blockChanged@BlockSource@@QEAAXAEBVBlockPos@@IAEBVBlock@@1HPEBUActorBlockSyncMessage@@PEAVActor@@@Z
?_blockUsingShield@Player@@QEAA_NAEBVActorDamageSource@@M@Z
?_broadcastUpdateToClients@PositionTrackingDBServer@PositionTrackingDB@@QEAAXPEBVTrackingRecord@2@@Z
?_buildSubChunkPacketData@ServerNetworkHandler@@QEAAXAEBVNetworkIdentifier@@PEBVServerPlayer@@AEBVSubChunkRequestPacket@@AEAVSubChunkPacket@@I_N@Z
?_createChunkBuildOrderPolicy@Dimension@@UEAA?AV?$unique_ptr@VChunkBuildOrderPolicyBase@@U?$default_delete@VChunkBuildOrderPolicyBase@@@std@@@std@@XZ
?_destroyBlocks@WitherBoss@@QEAAXAEAVLevel@@AEBVAABB@@AEAVBlockSource@@HW4WitherAttackType@1@@Z
?_explode@RespawnAnchorBlock@@SAXAEAVPlayer@@AEBVBlockPos@@AEAVBlockSource@@AEAVLevel@@@Z
?_genRandInt32@Random@Core@@QEAAIXZ
?_getConnectionFromId@NetworkSystem@@QEBAPEAVNetworkConnection@@AEBVNetworkIdentifier@@@Z
?_getOrInitSparseContainer@ItemStackRequestActionHandler@@QEAA?AV?$shared_ptr@VSimpleSparseContainer@@@std@@AEBUFullContainerName@@@Z
?_getRawBrightness@BlockSource@@QEBA?AUBrightness@@AEBVBlockPos@@U2@_N2@Z
?_handleTransfer@ItemStackRequestActionHandler@@QEAA?AW4ItemStackNetResult@@AEBVItemStackRequestActionTransferBase@@_N11@Z
?_initialize@ResourcePackRepository@@QEAAXXZ
?_isHeadInWater@Actor@@QEBA_NXZ
?_isLiquidBlocking@LiquidBlockDynamic@@QEBA_NAEAVBlockSource@@AEBVBlockPos@@1E@Z
?_lockRegistry@ItemRegistryRef@@QEBA?AV?$shared_ptr@VItemRegistry@@@std@@XZ
?_lookupByNameImpl@BlockTypeRegistry@@SA?AULookupByNameImplReturnType@1@AEBVHashedString@@HW4LookupByNameImplResolve@1@_N@Z
?_onPlayerLeft@ServerNetworkHandler@@QEAAXPEAVServerPlayer@@_N@Z
?_pickItemUp@PickupItemsGoal@@QEAAXPEAVItemActor@@@Z
?_placeGroundPatch@VegetationPatchFeature@@QEBA?AV?$vector@VBlockPos@@V?$allocator@VBlockPos@@@std@@@std@@AEAVIBlockWorldGenAPI@@AEAVRandom@@AEBVBlockPos@@HH@Z
?_placeGrowthAt@SculkBlockBehavior@@SAXAEAVIBlockWorldGenAPI@@PEAVBlockSource@@AEBVBlockPos@@AEAVRandom@@AEAVSculkSpreader@@@Z
?_pullCloser@FishingHook@@QEAAXAEAVActor@@M@Z
?_read@ChangeDimensionPacket@@UEAA?AV?$Result@XVerror_code@std@@@Bedrock@@AEAVReadOnlyBinaryStream@@@Z
?_read@LevelChunkPacket@@UEAA?AV?$Result@XVerror_code@std@@@Bedrock@@AEAVReadOnlyBinaryStream@@@Z
?_read@ModalFormRequestPacket@@UEAA?AV?$Result@XVerror_code@std@@@Bedrock@@AEAVReadOnlyBinaryStream@@@Z
?_read@PlayerActionPacket@@UEAA?AV?$Result@XVerror_code@std@@@Bedrock@@AEAVReadOnlyBinaryStream@@@Z
?_read@PlayerFogPacket@@UEAA?AV?$Result@XVerror_code@std@@@Bedrock@@AEAVReadOnlyBinaryStream@@@Z
?_read@RemoveActorPacket@@UEAA?AV?$Result@XVerror_code@std@@@Bedrock@@AEAVReadOnlyBinaryStream@@@Z
?_read@SpawnParticleEffectPacket@@UEAA?AV?$Result@XVerror_code@std@@@Bedrock@@AEAVReadOnlyBinaryStream@@@Z
?_read@TextPacket@@UEAA?AV?$Result@XVerror_code@std@@@Bedrock@@AEAVReadOnlyBinaryStream@@@Z
?_read@UpdateAbilitiesPacket@@UEAA?AV?$Result@XVerror_code@std@@@Bedrock@@AEAVReadOnlyBinaryStream@@@Z
?_read@UpdateAdventureSettingsPacket@@UEAA?AV?$Result@XVerror_code@std@@@Bedrock@@AEAVReadOnlyBinaryStream@@@Z
?_read@UpdateBlockPacket@@UEAA?AV?$Result@XVerror_code@std@@@Bedrock@@AEAVReadOnlyBinaryStream@@@Z
?_removeVillage@VillageManager@@QEAAXAEAVVillage@@@Z
?_sendBlocksChangedPackets@Dimension@@QEAAXXZ
?_sendCauldronUsedEventToClient@CauldronBlock@@QEBAXAEBVPlayer@@FW4POIBlockInteractionType@MinecraftEventing@@@Z
?_sendDirtyActorData@Actor@@QEAAXXZ
?_sendLevelData@ServerNetworkHandler@@QEAAXAEAVServerPlayer@@AEBVNetworkIdentifier@@@Z
?_sendTryDestroyBlockEvent@GameMode@@QEBA?AV?$optional@VItemStack@@@std@@AEBVBlock@@AEBVBlockPos@@VItemStack@@@Z
?_serializeChunk@DBChunkStorage@@QEAAXAEAVLevelChunk@@AEAVLevelStorageWriteBatch@@_N@Z
?_serverHooked@FishingHook@@QEAA_NXZ
?_setOnChunkLoadedCalled@LevelChunk@@QEAA_NXZ
?_setRespawnStage@EndDragonFight@@QEAAXW4RespawnAnimation@@@Z
?_setUUID@CommandOrigin@@UEAAXAEBVUUID@mce@@@Z
?_spawnExtraResourcesAndMergeItemDropsForBlock@Explosion@@SAXAEAVBlockSource@@AEBVBlockPos@@AEBVBlock@@AEAVRandomize@@AEBUResourceDropsContext@@AEAV?$vector@U?$pair@VItemStack@@VBlockPos@@@std@@V?$allocator@U?$pair@VItemStack@@VBlockPos@@@std@@@2@@std@@@Z
?_spawnWanderingTraderAtPos@WanderingTraderScheduler@@QEAAXAEBVBlockPos@@AEAVBlockSource@@@Z
?_spread@LiquidBlockDynamic@@QEBAXAEAVBlockSource@@AEBVBlockPos@@H_N@Z
?_tickServerMoveInputHandler@ServerMoveInputHandlerSystemUtils@@YAXAEAVStrictEntityContext@@AEBUMovementAbilitiesComponent@@AEBUServerPlayerCurrentMovementComponent@@AEAUClientInputLockComponent@@AEAUMoveInputComponent@@AEAUActorDataFlagComponent@@AEAUActorDataDirtyFlagsComponent@@AEAUVanillaClientGameplayComponent@@V?$Optional@$$CBUSneakingComponent@@@@V?$Optional@$$CBUWasInWaterFlagComponent@@@@AEAV?$OptionalGlobal@$$CBVPlayerMovementSettingsComponent@@@@@Z
?_tryAddItemsFromPos@Hopper@@QEAA_NAEAVBlockSource@@AEAVContainer@@AEBVVec3@@@Z
?_tryConsumeOnDeathExperience@SculkCatalystBlockActor@@QEAAXAEAVLevel@@AEAVActor@@@Z
?_tryMoveItems@Hopper@@QEAA_NAEAVBlockSource@@AEAVContainer@@AEBVVec3@@H_N@Z
?_tryPlaceFlower@FlowerPotBlock@@QEBA_NAEAVPlayer@@AEBVBlockPos@@@Z
?_trySwapItem@ArmorStand@@QEAA_NAEAVPlayer@@W4EquipmentSlot@Legacy@SharedTypes@@@Z
?_tryToPairWith@ChestBlockActor@@QEAAXAEAVBlockSource@@AEBVBlockPos@@@Z
?_updateState@ObserverBlock@@QEBAXAEAVBlockSource@@AEBVBlockPos@@AEAVPulseCapacitor@@_N@Z
?_upgradeLevelChunkLegacy@VanillaLevelChunkUpgrade@@YAXAEAVLevelChunk@@AEAVBlockSource@@@Z
?_upgradeLevelChunkViaMetaData@VanillaLevelChunkUpgrade@@YAXAEAVLevelChunk@@0AEAVBlockSource@@@Z
?_useInventory@CauldronBlock@@QEBAXAEAVPlayer@@AEAVItemStack@@1H@Z
?_writeArray@BinaryStream@@UEAAX$$QEAV?$function@$$A6AXAEAVBinaryStream@@@Z@std@@0PEBD1@Z
?achievementsWillBeDisabledOnLoad@LevelData@@QEBA_NXZ
?acquireDiscarded@ChunkSource@@UEAAXV?$unique_ptr@VLevelChunk@@ULevelChunkFinalDeleter@@@std@@@Z
?actorChangeDimension@ActorDimensionTransferManager@@QEAAXAEAVActor@@V?$AutomaticID@VDimension@@H@@AEBV?$optional@VVec3@@@std@@@Z
?add@ListTag@@QEAAXV?$unique_ptr@VTag@@U?$default_delete@VTag@@@std@@@std@@@Z
?addBiomes@OverworldBiomeBuilder@@QEBAXAEAV?$vector@UBiomeNoiseTarget@@V?$allocator@UBiomeNoiseTarget@@@std@@@std@@AEBVBiomeRegistry@@@Z
?addBreakingItemParticleEffect@LevelListener@@UEAAXAEBVVec3@@AEBUBreakingItemParticleData@@AEBUResolvedItemIconInfo@@@Z
?addEffect@Actor@@QEAAXAEBVMobEffectInstance@@@Z
?addEnumValueConstraints@CommandRegistry@@QEAAXAEBV?$basic_string@DU?$char_traits@D@std@@V?$allocator@D@2@@std@@AEBV?$vector@V?$basic_string@DU?$char_traits@D@std@@V?$allocator@D@2@@std@@V?$allocator@V?$basic_string@DU?$char_traits@D@std@@V?$allocator@D@2@@std@@@2@@3@W4SemanticConstraint@@@Z
?addHardcodedSpawnAreas@WorldGenerator@@UEAAXAEAVLevelChunk@@@Z
?addMessage@CommandOutput@@QEAAXAEBV?$basic_string@DU?$char_traits@D@std@@V?$allocator@D@2@@std@@AEBV?$vector@VCommandOutputParameter@@V?$allocator@VCommandOutputParameter@@@std@@@3@W4CommandOutputMessageType@@@Z
?addObjective@Scoreboard@@QEAAPEAVObjective@@AEBV?$basic_string@DU?$char_traits@D@std@@V?$allocator@D@2@@std@@0AEBVObjectiveCriteria@@@Z
?addPackSource@CompositePackSource@@QEAAXPEAVPackSource@@@Z
?addParticleEffect@LevelListener@@UEAAXAEBVHashedString@@AEBVActor@@0AEBVVec3@@AEBVMolangVariableMap@@@Z
?addShapedRecipe@Recipes@@QEAAXV?$basic_string@DU?$char_traits@D@std@@V?$allocator@D@2@@std@@AEBVItemInstance@@AEBV?$vector@V?$basic_string@DU?$char_traits@D@std@@V?$allocator@D@2@@std@@V?$allocator@V?$basic_string@DU?$char_traits@D@std@@V?$allocator@D@2@@std@@@2@@3@AEBV?$vector@VType@Recipes@@V?$allocator@VType@Recipes@@@std@@@3@AEBV?$vector@VHashedString@@V?$allocator@VHashedString@@@std@@@3@HV?$function@$$A6A?AV?$unique_ptr@VShapedRecipe@@U?$default_delete@VShapedRecipe@@@std@@@std@@V?$basic_string@DU?$c
?addShapelessRecipe@Recipes@@QEAAXV?$basic_string@DU?$char_traits@D@std@@V?$allocator@D@2@@std@@AEBVItemInstance@@AEBV?$vector@VType@Recipes@@V?$allocator@VType@Recipes@@@std@@@3@AEBV?$vector@VHashedString@@V?$allocator@VHashedString@@@std@@@3@HV?$function@$$A6A?AV?$unique_ptr@VShapelessRecipe@@U?$default_delete@VShapelessRecipe@@@std@@@std@@V?$basic_string@DU?$char_traits@D@std@@V?$allocator@D@2@@2@AEBV?$vector@VRecipeIngredient@@V?$allocator@VRecipeIngredient@@@std@@@2@AEBV?$vector@VItemInstance@@V?$alloc
?addSoftEnum@CommandRegistry@@QEAAHAEBV?$basic_string@DU?$char_traits@D@std@@V?$allocator@D@2@@std@@V?$vector@V?$basic_string@DU?$char_traits@D@std@@V?$allocator@D@2@@std@@V?$allocator@V?$basic_string@DU?$char_traits@D@std@@V?$allocator@D@2@@std@@@2@@3@@Z
?addSoftEnumValues@CommandRegistry@@QEAAXAEBV?$basic_string@DU?$char_traits@D@std@@V?$allocator@D@2@@std@@V?$vector@V?$basic_string@DU?$char_traits@D@std@@V?$allocator@D@2@@std@@V?$allocator@V?$basic_string@DU?$char_traits@D@std@@V?$allocator@D@2@@std@@@2@@3@@Z
?addTerrainParticleEffect@LevelListener@@UEAAXAEBVBlockPos@@AEBVBlock@@AEBVVec3@@MMM@Z
?addTerrainSlideEffect@LevelListener@@UEAAXAEBVBlockPos@@AEBVBlock@@AEBVVec3@@MMM@Z
?allChanged@LevelListener@@UEAAXXZ
?allowCheats@PropertiesSettings@@QEBA_NXZ
?allowIncomingConnections@ServerNetworkHandler@@QEAAXAEBV?$basic_string@DU?$char_traits@D@std@@V?$allocator@D@2@@std@@_N@Z
?append@RedactableString@Safety@Bedrock@@QEAAXV?$basic_string@DU?$char_traits@D@std@@V?$allocator@D@2@@std@@@Z
?applyEnchant@EnchantUtils@@SA_NAEAVItemStackBase@@W4Type@Enchant@@H_N@Z
?applyMobEffects@SplashPotionEffectSubcomponent@@QEAAXAEBVMobEffectInstance@@AEBV?$vector@PEAVActor@@V?$allocator@PEAVActor@@@std@@@std@@AEAVActor@@AEBV?$shared_ptr@$$CBVPotion@@@4@MPEAVMobEffect@@AEAVHitResult@@H@Z
?applyTarget@TeleportCommand@@SAXAEAVActor@@VTeleportTarget@@_N@Z
?asBool@Value@Json@@QEBA_N_N@Z
?asDouble@Value@Json@@QEBANN@Z
?asInt@Value@Json@@QEBAHH@Z
?asString@PackIdVersion@@QEBA?AV?$basic_string@DU?$char_traits@D@std@@V?$allocator@D@2@@std@@XZ
?asString@SemVersion@@QEBAAEBV?$basic_string@DU?$char_traits@D@std@@V?$allocator@D@2@@std@@XZ
?asString@UUID@mce@@QEBA?AV?$basic_string@DU?$char_traits@D@std@@V?$allocator@D@2@@std@@XZ
?asString@Value@Json@@QEBA?AV?$basic_string@DU?$char_traits@D@std@@V?$allocator@D@2@@std@@AEBV34@@Z
?baseUseItem@GameMode@@QEAA_NAEAVItemStack@@@Z
?begin@Value@Json@@QEBA?AVValueConstIterator@2@XZ
?blockDestroy@GameEventRegistry@@YAAEBVGameEvent@@XZ
?blockPlace@GameEventRegistry@@YAAEBVGameEvent@@XZ
?branchingWrite_DEPRECATED@BinaryStream@@UEAAX$$QEAV?$function@$$A6AXAEAVBinaryStream@@H@Z@std@@HAEBV?$vector@HV?$allocator@H@std@@@3@PEBD@Z
?branchingWrite_DEPRECATED@BinaryStream@@UEAAX$$QEAV?$function@$$A6AXAEAVBinaryStream@@H@Z@std@@HHHPEBD@Z
?buildBrightnessRamp@DimensionBrightnessRamp@@UEAAXXZ
?buildDescriptionId@Block@@QEBA?AV?$basic_string@DU?$char_traits@D@std@@V?$allocator@D@2@@std@@XZ
?buildDescriptionIdFromNameInfo@BlockLegacy@@SA?AV?$basic_string@DU?$char_traits@D@std@@V?$allocator@D@2@@std@@AEBUNameInfo@1@@Z
?buildDescriptionName@Block@@QEBA?AV?$basic_string@DU?$char_traits@D@std@@V?$allocator@D@2@@std@@XZ
?canBeFertilized@Block@@QEBA_NAEAVBlockSource@@AEBVBlockPos@@AEBV1@@Z
?canChangeDimension@ActorDimensionTransferManager@@QEAA_NAEBVActor@@V?$AutomaticID@VDimension@@H@@@Z
?canCreateViews@ChunkSource@@UEBA_NXZ
?canDestroy@ItemStackBase@@QEBA_NPEBVBlock@@@Z
?canDestroySpecial@ItemStackBase@@QEBA_NAEBVBlock@@@Z
?canFly@Actor@@QEBA_NXZ
?canLaunchTasks@ChunkSource@@UEBA_NXZ
?canProvideSupport@BlockSource@@QEBA_NAEBVBlockPos@@EW4BlockSupportType@@@Z
?canUseAbility@CommandOrigin@@UEBA_NW4AbilitiesIndex@@@Z
?canUseAbility@Player@@QEBA_NW4AbilitiesIndex@@@Z
?canUseAbility@PlayerCommandOrigin@@UEBA_NW4AbilitiesIndex@@@Z
?canUseCommandsWithoutCheatsEnabled@CommandOrigin@@UEBA_NXZ
?canUseCommandsWithoutCheatsEnabled@ServerCommandOrigin@@UEBA_NXZ
?change@SetScorePacket@@SA?AV1@V?$vector@UScorePacketInfo@@V?$allocator@UScorePacketInfo@@@std@@@std@@@Z
?checkAndReplaceChunk@ChunkSource@@UEAAXAEAVChunkViewSource@@AEAVLevelChunk@@@Z
?checkMobSpawn@SkullBlock@@QEBA_NAEAVLevel@@AEAVBlockSource@@AEBVBlockPos@@@Z
?checkSize@Packet@@UEBA?AV?$Result@XVerror_code@std@@@Bedrock@@_K_N@Z
?chunkPosNeedsBlending@ChunkSource@@UEAA_NAEBVChunkPos@@@Z
?clearAllItems@FullPlayerInventoryWrapper@@QEAAHXZ
?clearDeletedEntities@ChunkSource@@UEAAXXZ
?clearRespawnPosition@Player@@QEAAXXZ
?clip@AABB@@QEBA?AUAABBHitResult@@AEBVVec3@@0@Z
?clone@?$DataItem2@V?$basic_string@DU?$char_traits@D@std@@V?$allocator@D@2@@std@@@@UEBA?AV?$unique_ptr@VDataItem@@U?$default_delete@VDataItem@@@std@@@std@@XZ
?clone@ActorCommandOrigin@@UEBA?AV?$unique_ptr@VCommandOrigin@@U?$default_delete@VCommandOrigin@@@std@@@std@@XZ
?clone@ActorDamageSource@@UEBA?AV?$unique_ptr@VActorDamageSource@@U?$default_delete@VActorDamageSource@@@std@@@std@@XZ
?clone@CompoundTag@@QEBA?AV?$unique_ptr@VCompoundTag@@U?$default_delete@VCompoundTag@@@std@@@std@@XZ
?clone@ItemStack@@QEBA?AV1@XZ
?clone@PlayerCommandOrigin@@UEBA?AV?$unique_ptr@VCommandOrigin@@U?$default_delete@VCommandOrigin@@@std@@@std@@XZ
?clone@PlayerListEntry@@QEBA?AV1@XZ
?clone@ServerCommandOrigin@@UEBA?AV?$unique_ptr@VCommandOrigin@@U?$default_delete@VCommandOrigin@@@std@@@std@@XZ
?cloneAndExpandAlongDirection@AABB@@QEBA?AV1@AEBVVec3@@@Z
?cloneAndGrow@AABB@@QEBA?AV1@AEBVVec3@@@Z
?collectOptionalArguments@Command@@UEAA_NXZ
?compact@ChunkSource@@UEAAXXZ
?compileCommand@MinecraftCommands@@QEAAPEAVCommand@@AEBVHashedString@@AEAVCommandOrigin@@W4CurrentCmdVersion@@V?$function@$$A6AXAEBV?$basic_string@DU?$char_traits@D@std@@V?$allocator@D@2@@std@@@Z@std@@@Z
?computeTarget@TeleportCommand@@SA?AVTeleportTarget@@AEAVActor@@VVec3@@PEAV4@V?$AutomaticID@VDimension@@H@@AEBV?$optional@VRotationData@RotationCommandUtils@@@std@@H@Z
?contains@CompoundTag@@QEBA_NV?$basic_string_view@DU?$char_traits@D@std@@@std@@@Z
?contains@CompoundTag@@QEBA_NV?$basic_string_view@DU?$char_traits@D@std@@@std@@W4Type@Tag@@@Z
?containsOnly@FixedBiomeSource@@UEBA_NHHHHV?$span@$$CB_K$0?0@gsl@@@Z
?convertFakeToReal@IdentityDictionary@@QEAAAEBUScoreboardId@@AEBU2@AEBUPlayerScoreboardId@@@Z
?convertPointBetweenDimensions@VanillaDimensions@@SA_NAEBVVec3@@AEAV2@V?$AutomaticID@VDimension@@H@@2AEBVDimensionConversionData@@@Z
?copy@ByteArrayTag@@UEBA?AV?$unique_ptr@VTag@@U?$default_delete@VTag@@@std@@@std@@XZ
?copy@ByteTag@@UEBA?AV?$unique_ptr@VTag@@U?$default_delete@VTag@@@std@@@std@@XZ
?copy@CompoundTag@@UEBA?AV?$unique_ptr@VTag@@U?$default_delete@VTag@@@std@@@std@@XZ
?copy@DoubleTag@@UEBA?AV?$unique_ptr@VTag@@U?$default_delete@VTag@@@std@@@std@@XZ
?copy@EndTag@@UEBA?AV?$unique_ptr@VTag@@U?$default_delete@VTag@@@std@@@std@@XZ
?copy@FloatTag@@UEBA?AV?$unique_ptr@VTag@@U?$default_delete@VTag@@@std@@@std@@XZ
?copy@Int64Tag@@UEBA?AV?$unique_ptr@VTag@@U?$default_delete@VTag@@@std@@@std@@XZ
?copy@IntArrayTag@@UEBA?AV?$unique_ptr@VTag@@U?$default_delete@VTag@@@std@@@std@@XZ
?copy@IntTag@@UEBA?AV?$unique_ptr@VTag@@U?$default_delete@VTag@@@std@@@std@@XZ
?copy@ListTag@@UEBA?AV?$unique_ptr@VTag@@U?$default_delete@VTag@@@std@@@std@@XZ
?copy@ShortTag@@UEBA?AV?$unique_ptr@VTag@@U?$default_delete@VTag@@@std@@@std@@XZ
?copy@StringTag@@UEBA?AV?$unique_ptr@VTag@@U?$default_delete@VTag@@@std@@@std@@XZ
?create@SimulatedPlayer@@SAPEAV1@AEBV?$basic_string@DU?$char_traits@D@std@@V?$allocator@D@2@@std@@AEBVBlockPos@@V?$AutomaticID@VDimension@@H@@V?$not_null@V?$NonOwnerPointer@VServerNetworkHandler@@@Bedrock@@@gsl@@0@Z
?createAllGameRulesPacket@GameRules@@QEBA?AV?$unique_ptr@VGameRulesChangedPacket@@U?$default_delete@VGameRulesChangedPacket@@@std@@@std@@XZ
?createChat@TextPacket@@SA?AV1@AEBV?$basic_string@DU?$char_traits@D@std@@V?$allocator@D@2@@std@@0V?$optional@V?$basic_string@DU?$char_traits@D@std@@V?$allocator@D@2@@std@@@3@00@Z
?createCloneSaveContext@SaveContextFactory@@YA?AV?$unique_ptr@VSaveContext@@U?$default_delete@VSaveContext@@@std@@@std@@XZ
?createFlat@ChunkGeneratorStructureState@worldgen@br@@SA?AU123@_JAEBVBiomeSource@@V?$vector@V?$shared_ptr@$$CBUStructureSet@worldgen@br@@@std@@V?$allocator@V?$shared_ptr@$$CBUStructureSet@worldgen@br@@@std@@@2@@std@@@Z
?createInstance@CommandItem@@QEBA?AV?$optional@VItemInstance@@@std@@HHAEAVCommandOutput@@_N@Z
?createItemStack@CommandUtils@@YA?AVItemStack@@AEBV?$basic_string@DU?$char_traits@D@std@@V?$allocator@D@2@@std@@HH@Z
?createItemStacks@CommandUtils@@YA?AV?$vector@VItemStack@@V?$allocator@VItemStack@@@std@@@std@@AEBVItemInstance@@HAEAH@Z
?createNewChunk@ChunkSource@@UEAA?AV?$shared_ptr@VLevelChunk@@@std@@AEBVChunkPos@@W4LoadMode@1@_N@Z
?createNewPlayer@ServerNetworkHandler@@QEAA?AV?$OwnerPtr@VEntityContext@@@@AEBVNetworkIdentifier@@AEBVConnectionRequest@@@Z
?createNormal@ChunkGeneratorStructureState@worldgen@br@@SA?AU123@_JAEBVBiomeSource@@AEBVStructureSetRegistry@23@@Z
?createPacket@MinecraftPackets@@SA?AV?$shared_ptr@VPacket@@@std@@W4MinecraftPacketIds@@@Z
?createSystemMessage@TextPacket@@SA?AV1@AEBV?$basic_string@DU?$char_traits@D@std@@V?$allocator@D@2@@std@@@Z
?createTranslated@TextPacket@@SA?AV1@AEBV?$basic_string@DU?$char_traits@D@std@@V?$allocator@D@2@@std@@AEBV?$vector@V?$basic_string@DU?$char_traits@D@std@@V?$allocator@D@2@@std@@V?$allocator@V?$basic_string@DU?$char_traits@D@std@@V?$allocator@D@2@@std@@@2@@3@@Z
?dealExplosionDamage@FireworksRocketActor@@QEAAXXZ
?dealiasFeatureName@StructureFeatureTypeNames@@YAAEBV?$basic_string@DU?$char_traits@D@std@@V?$allocator@D@2@@std@@AEBV23@@Z
?debugRender@WorldGenerator@@UEAAXXZ
?decorateWorldGenLoadChunk@FlatWorldGenerator@@UEBAXAEBVBiome@@AEAVLevelChunk@@AEAVBlockVolumeTarget@@AEAVRandom@@AEBVChunkPos@@@Z
?decorateWorldGenPostProcess@FlatWorldGenerator@@UEBAXAEBVBiome@@AEAVLevelChunk@@AEAVBlockSource@@AEAVRandom@@@Z
?deleteChildren@ListTag@@UEAAXXZ
?deleteChildren@Tag@@UEAAXXZ
?deserialize@Dimension@@UEAAXAEBVCompoundTag@@@Z
?deserialize@ResourcePackStack@@SA?AV?$unique_ptr@VResourcePackStack@@U?$default_delete@VResourcePackStack@@@std@@@std@@AEAV?$basic_istream@DU?$char_traits@D@std@@@3@AEBV?$not_null@V?$NonOwnerPointer@$$CBVIResourcePackRepository@@@Bedrock@@@gsl@@@Z
?deserializeActorStorageToLevelChunk@ChunkSource@@UEAAXAEAVLevelChunk@@@Z
?disallowBatching@Packet@@UEBA_NXZ
?disconnect@ServerPlayer@@QEAAXXZ
?disconnectClient@ServerNetworkHandler@@QEAAXAEBVNetworkIdentifier@@W4DisconnectFailReason@Connection@@AEBV?$basic_string@DU?$char_traits@D@std@@V?$allocator@D@2@@std@@V?$optional@V?$basic_string@DU?$char_traits@D@std@@V?$allocator@D@2@@std@@@6@_N@Z
?doDeleteContainerManager@ServerPlayer@@QEAAX_N@Z
?dropFramedItem@ItemFrameBlockActor@@QEAAXAEAVBlockSource@@_NPEAVActor@@@Z
?eat@Player@@QEAAXAEBVItemStack@@@Z
?educationFeaturesEnabled@LevelData@@QEBA_NXZ
?emplace@PlayerListPacket@@QEAAX$$QEAVPlayerListEntry@@@Z
?enableCacheFor@ActiveTransfersManager@Server@ClientBlobCache@@QEAAXAEBVNetworkIdentifier@@@Z
?end@Value@Json@@QEBA?AVValueConstIterator@2@XZ
?equals@ByteArrayTag@@UEBA_NAEBVTag@@@Z
?equals@ByteTag@@UEBA_NAEBVTag@@@Z
?equals@CompoundTag@@UEBA_NAEBVTag@@@Z
?equals@DoubleTag@@UEBA_NAEBVTag@@@Z
?equals@EndTag@@UEBA_NAEBVTag@@@Z
?equals@FloatTag@@UEBA_NAEBVTag@@@Z
?equals@Int64Tag@@UEBA_NAEBVTag@@@Z
?equals@IntArrayTag@@UEBA_NAEBVTag@@@Z
?equals@IntTag@@UEBA_NAEBVTag@@@Z
?equals@ListTag@@UEBA_NAEBVTag@@@Z
?equals@ShortTag@@UEBA_NAEBVTag@@@Z
?equals@StringTag@@UEBA_NAEBVTag@@@Z
?equals@Tag@@UEBA_NAEBV1@@Z
?evalAsFloat@ExpressionNode@@QEBAMAEAVRenderParams@@@Z
?evaluate@CircuitSystem@@QEAAXPEAVBlockSource@@@Z
?executeCommand@MinecraftCommands@@QEBA?AUMCRESULT@@AEAVCommandContext@@_N@Z
?explode@Explosion@@QEAA_NXZ
?extractBlockNameInfo@BlockLegacy@@SA?AUNameInfo@1@AEBV?$basic_string@DU?$char_traits@D@std@@V?$allocator@D@2@@std@@@Z
?extractRecipeFormatVersion@Recipes@@QEAA?AVSemVersion@@AEBVValue@Json@@@Z
?extractRecipeObjInfo@Recipes@@QEAA?AU?$pair@V?$basic_string@DU?$char_traits@D@std@@V?$allocator@D@2@@std@@VValue@Json@@@std@@AEBVValue@Json@@@Z
?fetchBlockEntities@BlockSource@@QEAAAEBV?$vector@PEAVBlockActor@@V?$allocator@PEAVBlockActor@@@std@@@std@@AEBVAABB@@@Z
?fetchEntity@Dimension@@UEBAPEAVActor@@UActorUniqueID@@_N@Z
?fillBiomes@FixedBiomeSource@@UEBAXAEAVLevelChunk@@AEBVChunkLocalNoiseCache@@@Z
?fillContainer@LootTableUtils@Util@@SAXAEAVLevel@@AEAVContainer@@AEAVRandom@@AEBV?$basic_string@DU?$char_traits@D@std@@V?$allocator@D@2@@std@@V?$AutomaticID@VDimension@@H@@PEAVActor@@@Z
?fillFromWorld@StructureTemplate@@QEAAXAEAVBlockSource@@AEBVBlockPos@@AEBVStructureSettings@@@Z
?findCommand@CommandRegistry@@QEAAPEAUSignature@1@AEBV?$basic_string@DU?$char_traits@D@std@@V?$allocator@D@2@@std@@@Z
?findNearestStructureFeature@FlatWorldGenerator@@UEAA_NVHashedString@@AEBVBlockPos@@AEAV3@_NV?$optional@VHashedString@@@std@@@Z
?findRelationships@CircuitSceneGraph@@QEAAXAEBVBlockPos@@PEAVBaseCircuitComponent@@PEAVBlockSource@@@Z
?findSpawnPosition@FlatWorldGenerator@@UEBA?AVBlockPos@@XZ
?findStructureFeatureTypeAt@FlatWorldGenerator@@UEAA?AVHashedString@@AEBVBlockPos@@@Z
?fixWallChunk@VanillaLevelChunkUpgrade@@YAXAEAVLevelChunk@@AEAVBlockSource@@@Z
?flushLevelChunkGarbageCollector@Dimension@@UEAAXXZ
?flushPendingDiscardedChunkWrites@ChunkSource@@UEAAXXZ
?flushThreadBatch@ChunkSource@@UEAAXXZ
?forEachPlayer@Dimension@@UEBAXV?$function_ref@$$A6A_NAEAVPlayer@@@Z$$A6A_N0@Z@brstd@@@Z
?fromSerializedInt@VanillaDimensions@@SA?AV?$AutomaticID@VDimension@@H@@H@Z
?fromSerializedInt@VanillaDimensions@@SA?AV?$Result@V?$AutomaticID@VDimension@@H@@Verror_code@std@@@Bedrock@@$$QEAV?$Result@HVerror_code@std@@@3@@Z
?fromString@PackIdVersion@@SA?AU1@AEBV?$basic_string@DU?$char_traits@D@std@@V?$allocator@D@2@@std@@@Z
?fromString@UUID@mce@@SA?AV12@AEBV?$basic_string@DU?$char_traits@D@std@@V?$allocator@D@2@@std@@@Z
?fromString@VanillaDimensions@@SA?AV?$AutomaticID@VDimension@@H@@AEBV?$basic_string@DU?$char_traits@D@std@@V?$allocator@D@2@@std@@@Z
?fromTag@ItemStack@@SA?AV1@AEBVCompoundTag@@@Z
?gProfilerLiteInstance@ProfilerLite@@SAAEAV1@XZ
?garbageCollectBlueprints@FlatWorldGenerator@@UEAAXV?$buffer_span@VChunkPos@@@@@Z
?generateRandomDeathLoot@LootTableUtils@Util@@SA?AV?$vector@VItemStack@@V?$allocator@VItemStack@@@std@@@std@@AEBVLootTable@@AEAVActor@@PEBVActorDamageSource@@PEBVItemStack@@PEAVPlayer@@M@Z
?generateUUID@Random@Crypto@@YA?AVUUID@mce@@XZ
?get@ListTag@@QEBAPEAVTag@@H@Z
?get@Localization@@QEBA_NAEBV?$basic_string@DU?$char_traits@D@std@@V?$allocator@D@2@@std@@AEAV23@AEBV?$vector@V?$basic_string@DU?$char_traits@D@std@@V?$allocator@D@2@@std@@V?$allocator@V?$basic_string@DU?$char_traits@D@std@@V?$allocator@D@2@@std@@@2@@3@@Z
?get@Value@Json@@QEBA?AV12@PEBDAEBV12@@Z
?getAABB@Actor@@QEBAAEBVAABB@@XZ
?getAbilities@Player@@QEAAAEAVLayeredAbilities@@XZ
?getAbilities@Player@@QEBAAEBVLayeredAbilities@@XZ
?getActions@InventoryTransaction@@QEBAAEBV?$vector@VInventoryAction@@V?$allocator@VInventoryAction@@@std@@@std@@AEBVInventorySource@@@Z
?getActorFlag@SynchedActorDataAccess@@YA_NAEBVEntityContext@@W4ActorFlags@@@Z
?getActorIdentifier@Actor@@QEBAAEBUActorDefinitionIdentifier@@XZ
?getAliases@CommandRegistry@@QEBA?AV?$vector@V?$basic_string@DU?$char_traits@D@std@@V?$allocator@D@2@@std@@V?$allocator@V?$basic_string@DU?$char_traits@D@std@@V?$allocator@D@2@@std@@@2@@std@@AEBV?$basic_string@DU?$char_traits@D@std@@V?$allocator@D@2@@3@@Z
?getArmorContainer@ActorEquipment@@YAAEAVSimpleContainer@@AEAVEntityContext@@@Z
?getArmorCoverPercentage@Mob@@QEBAMXZ
?getAttachPos@Actor@@QEBA?AVVec3@@W4ActorLocation@Legacy@SharedTypes@@@Z
?getAttribute@Actor@@QEBAAEBVAttributeInstance@@AEBVAttribute@@@Z
?getAuxValue@ItemDescriptor@@QEBAFXZ
?getAuxValue@ItemStackBase@@QEBAFXZ
?getBaseAmbientValue@DimensionBrightnessRamp@@UEBAMXZ
?getBaseAmbientValue@NetherBrightnessRamp@@UEBAMXZ
?getBaseGameVersion@LevelData@@QEBAAEBVBaseGameVersion@@XZ
?getBaseRepairCost@ItemStackBase@@QEBAHXZ
?getBedPOICount@Village@@QEBA_KXZ
?getBiome@BlockSource@@QEBAAEBVBiome@@AEBVBlockPos@@@Z
?getBiome@FixedBiomeSource@@UEBAPEBVBiome@@AEBUGetBiomeOptions@@@Z
?getBiome@FixedBiomeSource@@UEBAPEBVBiome@@AEBVBlockPos@@@Z
?getBiome@FixedBiomeSource@@UEBAPEBVBiome@@HHH@Z
?getBiomeArea@FixedBiomeSource@@UEBA?AVBiomeArea@@AEBVBoundingBox@@I@Z
?getBiomeArea@FixedBiomeSource@@UEBA?AVBiomeArea@@AEBVBoundingBox@@IAEBUGetBiomeOptions@@@Z
?getBiomeArea@FlatWorldGenerator@@UEBA?AVBiomeArea@@AEBVBoundingBox@@I@Z
?getBiomeRegistry@Dimension@@UEAAAEAVBiomeRegistry@@XZ
?getBiomeRegistry@Dimension@@UEBAAEBVBiomeRegistry@@XZ
?getBiomeSource@FlatWorldGenerator@@UEBAAEBVBiomeSource@@XZ
?getBiomeType@Biome@@QEBA?AW4VanillaBiomeTypes@@XZ
?getBlock@CommandBlockNameResult@@QEBAPEBVBlock@@XZ
?getBlock@ItemDescriptor@@QEBAPEBVBlock@@XZ
?getBlock@LevelChunk@@QEBAAEBVBlock@@AEBVChunkBlockPos@@@Z
?getBlockEntity@BlockSource@@QEAAPEAVBlockActor@@AEBVBlockPos@@@Z
?getBlockItemId@BlockLegacy@@QEBAFXZ
?getBlockNameFromNameHash@BlockTypeRegistry@@SAAEBVHashedString@@_K@Z
?getBlockPos@CommandPosition@@QEBA?AVBlockPos@@AEBVVec3@@0@Z
?getBlockPos@CommandPosition@@QEBA?AVBlockPos@@HAEBVCommandOrigin@@AEBVVec3@@@Z
?getBlockPosCurrentlyStandingOn@Actor@@QEBA?AVBlockPos@@PEBV1@@Z
?getBlockPosition@ActorCommandOrigin@@UEBA?AVBlockPos@@XZ
?getBlockPosition@PlayerCommandOrigin@@UEBA?AVBlockPos@@XZ
?getBlockPosition@ServerCommandOrigin@@UEBA?AVBlockPos@@XZ
?getBlockSourceFromMainChunkSource@Dimension@@QEBAAEAVBlockSource@@XZ
?getBlockSourceFromMainChunkSource@Dimension@@UEBAAEAVBlockSource@@XZ
?getBlockState@BlockLegacy@@QEBAPEBVBlockState@@AEBVHashedString@@@Z
?getBlockTypeFromLegacyId@VanillaBlockConversion@@YA?AV?$WeakPtr@$$CBVBlockLegacy@@@@I@Z
?getBlockVolumeDimensions@FlatWorldGenerator@@UEBA?AUBlockVolumeDimensions@WorldGenerator@@XZ
?getBool@GameRule@@QEBA_NXZ
?getBool@LayeredAbilities@@QEBA_NW4AbilitiesIndex@@@Z
?getBrightnessDependentFogColor@Dimension@@UEBA?AVColor@mce@@AEBV23@M@Z
?getBrightnessRamp@Dimension@@UEBAAEBVDimensionBrightnessRamp@@XZ
?getBuildInfo@Common@@YA?AUBuildInfo@1@XZ
?getById@MobEffect@@SAPEAV1@I@Z
?getByName@MobEffect@@SAPEAV1@AEBV?$basic_string@DU?$char_traits@D@std@@V?$allocator@D@2@@std@@@Z
?getCarryingBlock@EnderMan@@QEBAAEBVBlock@@XZ
?getCategoryName@ItemStackBase@@QEBA?AV?$basic_string@DU?$char_traits@D@std@@V?$allocator@D@2@@std@@XZ
?getCause@ActorDamageSource@@QEBA?AW4ActorDamageCause@@XZ
?getCertificate@ConnectionRequest@@QEBAPEBVCertificate@@XZ
?getChunkEntities@LevelChunk@@QEAAAEAV?$vector@VWeakEntityRef@@V?$allocator@VWeakEntityRef@@@std@@@std@@XZ
?getChunkMap@ChunkSource@@UEAAPEBV?$unordered_map@VChunkPos@@V?$weak_ptr@VLevelChunk@@@std@@U?$hash@VChunkPos@@@3@U?$equal_to@VChunkPos@@@3@V?$allocator@U?$pair@$$CBVChunkPos@@V?$weak_ptr@VLevelChunk@@@std@@@std@@@3@@std@@XZ
?getCircuitSystem@Dimension@@QEAAAEAVCircuitSystem@@XZ
?getCommands@Minecraft@@QEAAAEAVMinecraftCommands@@XZ
?getComponent@CircuitSceneGraph@@QEAAPEAVBaseCircuitComponent@@AEBVBlockPos@@W4CircuitComponentType@@@Z
?getCompound@ListTag@@QEAAPEAVCompoundTag@@_K@Z
?getContainerAt@DropperBlockActor@@SAPEAVContainer@@AEAVBlockSource@@AEBVVec3@@@Z
?getContainerType@Container@@QEBA?AW4ContainerType@@XZ
?getCriteria@Scoreboard@@QEBAPEAVObjectiveCriteria@@AEBV?$basic_string@DU?$char_traits@D@std@@V?$allocator@D@2@@std@@@Z
?getCurrentValue@AttributeInstance@@QEBAMXZ
?getCursorHitBlockPos@CommandOrigin@@UEBA?AV?$optional@VBlockPos@@@std@@XZ
?getCursorHitBlockPos@PlayerCommandOrigin@@UEBA?AV?$optional@VBlockPos@@@std@@XZ
?getCursorHitPos@CommandOrigin@@UEBA?AV?$optional@VVec3@@@std@@XZ
?getCursorHitPos@PlayerCommandOrigin@@UEBA?AV?$optional@VVec3@@@std@@XZ
?getCustomLore@ItemStackBase@@QEBA?AV?$vector@V?$basic_string@DU?$char_traits@D@std@@V?$allocator@D@2@@std@@V?$allocator@V?$basic_string@DU?$char_traits@D@std@@V?$allocator@D@2@@std@@@2@@std@@XZ
?getCustomName@ItemStackBase@@QEBA?AV?$basic_string@DU?$char_traits@D@std@@V?$allocator@D@2@@std@@XZ
?getDamageAfterResistanceEffect@Mob@@QEBAMAEBVActorDamageSource@@M@Z
?getDamageValue@ItemStackBase@@QEBAFXZ
?getDamagingEntityCategories@ActorDamageSource@@UEBA?AW4ActorCategory@@XZ
?getDamagingEntityIsCreative@ActorDamageSource@@UEBA_NXZ
?getDamagingEntityIsWorldBuilder@ActorDamageSource@@UEBA_NXZ
?getDamagingEntityType@ActorDamageSource@@UEBA?AW4ActorType@@XZ
?getDamagingEntityUniqueID@ActorDamageSource@@UEBA?AUActorUniqueID@@XZ
?getDeathMessage@ActorDamageSource@@UEBA?AU?$pair@V?$basic_string@DU?$char_traits@D@std@@V?$allocator@D@2@@std@@V?$vector@V?$basic_string@DU?$char_traits@D@std@@V?$allocator@D@2@@std@@V?$allocator@V?$basic_string@DU?$char_traits@D@std@@V?$allocator@D@2@@std@@@2@@2@@std@@V?$basic_string@DU?$char_traits@D@std@@V?$allocator@D@2@@3@PEAVActor@@@Z
?getDefaultBiome@Dimension@@UEBA?AVHashedString@@XZ
?getDefaultBlockState@BlockTypeRegistry@@SAAEBVBlock@@AEBVHashedString@@_N@Z
?getDescriptionId@ItemStackBase@@QEBA?AV?$basic_string@DU?$char_traits@D@std@@V?$allocator@D@2@@std@@XZ
?getDestroyProgress@Player@@QEAAMAEBVBlock@@@Z
?getDestroySpeed@Block@@QEBAMXZ
?getDestroySpeed@ItemStack@@QEBAMAEBVBlock@@@Z
?getDeviceId@ConnectionRequest@@QEBA?AV?$basic_string@DU?$char_traits@D@std@@V?$allocator@D@2@@std@@XZ
?getDifficulty@PropertiesSettings@@QEBA?AW4Difficulty@@XZ
?getDimension@Actor@@QEBAAEAVDimension@@XZ
?getDimension@ActorCommandOrigin@@UEBAPEAVDimension@@XZ
?getDimension@ChunkSource@@QEBAAEAVDimension@@XZ
?getDimension@LevelChunk@@QEBAAEAVDimension@@XZ
?getDimension@PlayerCommandOrigin@@UEBAPEAVDimension@@XZ
?getDimension@ServerCommandOrigin@@UEBAPEAVDimension@@XZ
?getDimensionBlockSource@Actor@@QEBAAEAVBlockSource@@XZ
?getDimensionBlockSourceConst@Actor@@QEBAAEBVBlockSource@@XZ
?getDimensionId@Actor@@QEBA?AV?$AutomaticID@VDimension@@H@@XZ
?getDimensionId@Dimension@@UEBA?AV?$AutomaticID@VDimension@@H@@XZ
?getDirection@Player@@QEBAHXZ
?getDisplayName@Objective@@QEBAAEBV?$basic_string@DU?$char_traits@D@std@@V?$allocator@D@2@@std@@XZ
?getEffect@Actor@@QEBAPEBVMobEffectInstance@@I@Z
?getEffectName@ItemStackBase@@QEBA?AV?$basic_string@DU?$char_traits@D@std@@V?$allocator@D@2@@std@@XZ
?getEnchant@Enchant@@SAPEBV1@AEBW4Type@1@@Z
?getEnchantLevel@EnchantUtils@@SAHW4Type@Enchant@@AEBVItemStackBase@@@Z
?getEnchantNameAndLevel@EnchantUtils@@SA?AV?$basic_string@DU?$char_traits@D@std@@V?$allocator@D@2@@std@@W4Type@Enchant@@H@Z
?getEnchantTypeFromName@Enchant@@SA?AW4Type@1@AEBVHashedString@@@Z
?getEntity@ActorCommandOrigin@@UEBAPEAVActor@@XZ
?getEntity@HitResult@@QEBAPEAVActor@@XZ
?getEntity@PlayerCommandOrigin@@UEBAPEAVActor@@XZ
?getEntity@ServerCommandOrigin@@UEBAPEAVActor@@XZ
?getEntityCategories@ActorDamageSource@@UEBA?AW4ActorCategory@@XZ
?getEntityId@IdentityDefinition@@QEBAAEBUActorUniqueID@@XZ
?getEntityType@ActorDamageSource@@UEBA?AW4ActorType@@XZ
?getEntityTypeId@Actor@@QEBA?AW4ActorType@@XZ
?getEntityUniqueID@ActorDamageSource@@UEBA?AUActorUniqueID@@XZ
?getEnumData@CommandRegistry@@QEBA_KAEBUParseToken@1@@Z
?getExecutePosition@CommandOrigin@@UEBA?BVVec3@@HAEBVCommandPositionFloat@@@Z
?getExistingChunk@ChunkSource@@UEAA?AV?$shared_ptr@VLevelChunk@@@std@@AEBVChunkPos@@@Z
?getExpectedSpawnPosition@Player@@QEBAAEBVBlockPos@@XZ
?getExperimentTextID@Experiments@@SAAEBV?$basic_string@DU?$char_traits@D@std@@V?$allocator@D@2@@std@@W4AllExperiments@@@Z
?getExperiments@LevelData@@QEAAAEAVExperiments@@XZ
?getEyePos@Actor@@QEBA?AVVec3@@XZ
?getFakePlayerName@IdentityDefinition@@QEBAAEBV?$basic_string@DU?$char_traits@D@std@@V?$allocator@D@2@@std@@XZ
?getFallDistance@Actor@@QEBAMXZ
?getFeetPos@CommandUtils@@YA?AVVec3@@PEBVActor@@@Z
?getFloat@GameRule@@QEBAMXZ
?getFullLanguageCode@Localization@@QEBA?AV?$basic_string@DU?$char_traits@D@std@@V?$allocator@D@2@@std@@XZ
?getFullName@ItemDescriptor@@QEBA?AV?$basic_string@DU?$char_traits@D@std@@V?$allocator@D@2@@std@@XZ
?getGameType@LevelData@@QEBA?AW4GameType@@XZ
?getGameVersionString@Common@@YA?AV?$basic_string@DU?$char_traits@D@std@@V?$allocator@D@2@@std@@XZ
?getHash@ActorUniqueID@@QEBA_KXZ
?getHash@NetworkIdentifier@@QEBA_KXZ
?getHealth@Actor@@QEBAHXZ
?getHealth@ActorAttribute@@YAHAEBVEntityContext@@@Z
?getI18n@@YAAEAVI18n@@XZ
?getId@?$DataItem2@V?$basic_string@DU?$char_traits@D@std@@V?$allocator@D@2@@std@@@@UEBAGXZ
?getId@ByteArrayTag@@UEBA?AW4Type@Tag@@XZ
?getId@ByteTag@@UEBA?AW4Type@Tag@@XZ
?getId@ChangeDimensionPacket@@UEBA?AW4MinecraftPacketIds@@XZ
?getId@CompoundTag@@UEBA?AW4Type@Tag@@XZ
?getId@DoubleTag@@UEBA?AW4Type@Tag@@XZ
?getId@EndTag@@UEBA?AW4Type@Tag@@XZ
?getId@FloatTag@@UEBA?AW4Type@Tag@@XZ
?getId@Int64Tag@@UEBA?AW4Type@Tag@@XZ
?getId@IntArrayTag@@UEBA?AW4Type@Tag@@XZ
?getId@IntTag@@UEBA?AW4Type@Tag@@XZ
?getId@Item@@QEBAFXZ
?getId@ItemStackBase@@QEBAFXZ
?getId@LevelChunkPacket@@UEBA?AW4MinecraftPacketIds@@XZ
?getId@ListTag@@UEBA?AW4Type@Tag@@XZ
?getId@MobEffect@@QEBAIXZ
?getId@ModalFormRequestPacket@@UEBA?AW4MinecraftPacketIds@@XZ
?getId@PlayerActionPacket@@UEBA?AW4MinecraftPacketIds@@XZ
?getId@PlayerFogPacket@@UEBA?AW4MinecraftPacketIds@@XZ
?getId@RemoveActorPacket@@UEBA?AW4MinecraftPacketIds@@XZ
?getId@ShortTag@@UEBA?AW4Type@Tag@@XZ
?getId@SpawnParticleEffectPacket@@UEBA?AW4MinecraftPacketIds@@XZ
?getId@StringTag@@UEBA?AW4Type@Tag@@XZ
?getId@TextPacket@@UEBA?AW4MinecraftPacketIds@@XZ
?getId@UpdateAbilitiesPacket@@UEBA?AW4MinecraftPacketIds@@XZ
?getId@UpdateAdventureSettingsPacket@@UEBA?AW4MinecraftPacketIds@@XZ
?getId@UpdateBlockPacket@@UEBA?AW4MinecraftPacketIds@@XZ
?getIdScores@Scoreboard@@QEBA?AV?$vector@UScoreInfo@@V?$allocator@UScoreInfo@@@std@@@std@@AEBUScoreboardId@@@Z
?getIdentity@CommandOrigin@@UEBA?AUCommandOriginIdentity@@XZ
?getIdentity@ExtendedCertificate@@SA?AVUUID@mce@@AEBVCertificate@@@Z
?getIdentity@GameServerToken@@QEBA?AVUUID@mce@@XZ
?getIdentity@PackManifest@@QEBAAEBUPackIdVersion@@XZ
?getIdentity@PlayerCommandOrigin@@UEBA?AUCommandOriginIdentity@@XZ
?getIdentityDef@ScoreboardId@@QEBAAEBVIdentityDefinition@@XZ
?getIdentityName@ExtendedCertificate@@SA?AV?$basic_string@DU?$char_traits@D@std@@V?$allocator@D@2@@std@@AEBVCertificate@@@Z
?getIdentityName@GameServerToken@@QEBA?AV?$basic_string@DU?$char_traits@D@std@@V?$allocator@D@2@@std@@XZ
?getIdentityType@IdentityDefinition@@QEBA?AW4Type@1@XZ
?getInt@GameRule@@QEBAHXZ
?getInteractText@Player@@QEBA?AV?$basic_string@DU?$char_traits@D@std@@V?$allocator@D@2@@std@@XZ
?getInventory@Player@@QEAAAEAVContainer@@XZ
?getIsCreative@ActorDamageSource@@UEBA_NXZ
?getIsWorldBuilder@ActorDamageSource@@UEBA_NXZ
?getItem@ItemDescriptor@@QEBAPEBVItem@@XZ
?getItem@ItemStackBase@@QEBAPEBVItem@@XZ
?getItemLockMode@ItemLockHelper@@SA?AW4ItemLockMode@@AEBVItemStackBase@@@Z
?getLanguage@PropertiesSettings@@QEBAAEBV?$basic_string@DU?$char_traits@D@std@@V?$allocator@D@2@@std@@XZ
?getLastHurtByMob@Actor@@QEAAPEAVMob@@XZ
?getLastHurtByMobTime@Actor@@QEAAHXZ
?getLegacyBlock@Block@@QEBAAEBVBlockLegacy@@XZ
?getLevel@Actor@@QEAAAEAVLevel@@XZ
?getLevel@ActorCommandOrigin@@UEBAPEAVLevel@@XZ
?getLevel@Minecraft@@QEBAPEAVLevel@@XZ
?getLevel@PlayerCommandOrigin@@UEBAPEAVLevel@@XZ
?getLevel@ServerCommandOrigin@@UEBAPEAVLevel@@XZ
?getLevelName@LevelData@@QEBAAEBV?$basic_string@DU?$char_traits@D@std@@V?$allocator@D@2@@std@@XZ
?getLevelTimeStamp@Actor@@QEBA_KXZ
?getLightEmission@Block@@QEBA?AUBrightness@@XZ
?getLightTextureImageBuilder@Dimension@@UEBAPEAVBaseLightTextureImageBuilder@@XZ
?getMajor@SemVersion@@QEBAGXZ
?getManifest@Pack@@QEAAAEAVPackManifest@@XZ
?getManifest@ResourcePack@@QEAAAEAVPackManifest@@XZ
?getMaxDamage@ItemStackBase@@QEBAFXZ
?getMaxHealth@Actor@@QEBAHXZ
?getMaxStackSize@ItemStackBase@@QEBAEXZ
?getMaxValue@AttributeInstance@@QEBAMXZ
?getMemberNames@Value@Json@@QEBA?AV?$vector@V?$basic_string@DU?$char_traits@D@std@@V?$allocator@D@2@@std@@V?$allocator@V?$basic_string@DU?$char_traits@D@std@@V?$allocator@D@2@@std@@@2@@std@@XZ
?getMessage@Text@SignBlockActor@@QEBAAEBV?$basic_string@DU?$char_traits@D@std@@V?$allocator@D@2@@std@@XZ
?getMessageId@CommandOutputMessage@@QEBAAEBV?$basic_string@DU?$char_traits@D@std@@V?$allocator@D@2@@std@@XZ
?getMessages@CommandOutput@@QEBAAEBV?$vector@VCommandOutputMessage@@V?$allocator@VCommandOutputMessage@@@std@@@std@@XZ
?getMinHeight@Dimension@@QEBAFXZ
?getMinY@LevelChunk@@QEBAFXZ
?getMinor@SemVersion@@QEBAGXZ
?getMotd@PropertiesSettings@@QEBAAEBV?$basic_string@DU?$char_traits@D@std@@V?$allocator@D@2@@std@@XZ
?getMutableAttribute@Actor@@QEAA?AUMutableAttributeWithContext@@AEBVAttribute@@@Z
?getMutableAttribute@Actor@@QEAAPEAVAttributeInstance@@AEBVAttribute@@@Z
?getName@ActorCommandOrigin@@UEBA?AV?$basic_string@DU?$char_traits@D@std@@V?$allocator@D@2@@std@@XZ
?getName@Block@@QEBAAEBVHashedString@@XZ
?getName@ChangeDimensionPacket@@UEBA?AV?$basic_string@DU?$char_traits@D@std@@V?$allocator@D@2@@std@@XZ
?getName@GameRule@@QEBAAEBV?$basic_string@DU?$char_traits@D@std@@V?$allocator@D@2@@std@@XZ
?getName@ItemStackBase@@QEBA?AV?$basic_string@DU?$char_traits@D@std@@V?$allocator@D@2@@std@@XZ
?getName@LevelChunkPacket@@UEBA?AV?$basic_string@DU?$char_traits@D@std@@V?$allocator@D@2@@std@@XZ
?getName@ModalFormRequestPacket@@UEBA?AV?$basic_string@DU?$char_traits@D@std@@V?$allocator@D@2@@std@@XZ
?getName@Objective@@QEBAAEBV?$basic_string@DU?$char_traits@D@std@@V?$allocator@D@2@@std@@XZ
?getName@Player@@QEBAAEBV?$basic_string@DU?$char_traits@D@std@@V?$allocator@D@2@@std@@XZ
?getName@PlayerActionPacket@@UEBA?AV?$basic_string@DU?$char_traits@D@std@@V?$allocator@D@2@@std@@XZ
?getName@PlayerCommandOrigin@@UEBA?AV?$basic_string@DU?$char_traits@D@std@@V?$allocator@D@2@@std@@XZ
?getName@PlayerFogPacket@@UEBA?AV?$basic_string@DU?$char_traits@D@std@@V?$allocator@D@2@@std@@XZ
?getName@RemoveActorPacket@@UEBA?AV?$basic_string@DU?$char_traits@D@std@@V?$allocator@D@2@@std@@XZ
?getName@ServerCommandOrigin@@UEBA?AV?$basic_string@DU?$char_traits@D@std@@V?$allocator@D@2@@std@@XZ
?getName@SpawnParticleEffectPacket@@UEBA?AV?$basic_string@DU?$char_traits@D@std@@V?$allocator@D@2@@std@@XZ
?getName@TextPacket@@UEBA?AV?$basic_string@DU?$char_traits@D@std@@V?$allocator@D@2@@std@@XZ
?getName@UpdateAbilitiesPacket@@UEBA?AV?$basic_string@DU?$char_traits@D@std@@V?$allocator@D@2@@std@@XZ
?getName@UpdateAdventureSettingsPacket@@UEBA?AV?$basic_string@DU?$char_traits@D@std@@V?$allocator@D@2@@std@@XZ
?getName@UpdateBlockPacket@@UEBA?AV?$basic_string@DU?$char_traits@D@std@@V?$allocator@D@2@@std@@XZ
?getNameTag@Actor@@QEBAAEBV?$basic_string@DU?$char_traits@D@std@@V?$allocator@D@2@@std@@XZ
?getObjective@Scoreboard@@QEBAPEAVObjective@@AEBV?$basic_string@DU?$char_traits@D@std@@V?$allocator@D@2@@std@@@Z
?getObjectives@Scoreboard@@QEBA?AV?$vector@PEBVObjective@@V?$allocator@PEBVObjective@@@std@@@std@@XZ
?getOffhandSlot@Actor@@QEBAAEBVItemStack@@XZ
?getOrCreateUniqueID@Actor@@QEBAAEBUActorUniqueID@@XZ
?getOrLoadChunk@ChunkSource@@UEAA?AV?$shared_ptr@VLevelChunk@@@std@@AEBVChunkPos@@W4LoadMode@1@_N@Z
?getOriginType@ActorCommandOrigin@@UEBA?AW4CommandOriginType@@XZ
?getOriginType@PlayerCommandOrigin@@UEBA?AW4CommandOriginType@@XZ
?getOriginType@ServerCommandOrigin@@UEBA?AW4CommandOriginType@@XZ
?getOutputReceiver@CommandOrigin@@UEBAAEBV1@XZ
?getOwner@Actor@@QEBAPEAVMob@@XZ
?getOwnerId@Actor@@QEBA?BUActorUniqueID@@XZ
?getPackOrigin@PackManifest@@QEBA?AW4PackOrigin@@XZ
?getPackSettings@PackSettingsFactory@@QEAAPEAVPackSettings@@AEBVPackManifest@@@Z
?getParams@CommandOutputMessage@@QEBAAEBV?$vector@V?$basic_string@DU?$char_traits@D@std@@V?$allocator@D@2@@std@@V?$allocator@V?$basic_string@DU?$char_traits@D@std@@V?$allocator@D@2@@std@@@2@@std@@XZ
?getPatch@SemVersion@@QEBAGXZ
?getPeerForUser@NetworkSystem@@QEAAPEAVNetworkPeer@@AEBVNetworkIdentifier@@@Z
?getPermissionsLevel@ActorCommandOrigin@@UEBA?AW4CommandPermissionLevel@@XZ
?getPermissionsLevel@PlayerCommandOrigin@@UEBA?AW4CommandPermissionLevel@@XZ
?getPermissionsLevel@ServerCommandOrigin@@UEBA?AW4CommandPermissionLevel@@XZ
?getPixels@MapItemSavedData@@QEBA?AV?$buffer_span@I@@XZ
?getPlatform@Player@@QEBA?AW4BuildPlatform@@XZ
?getPlayerGameType@Player@@QEBA?AW4GameType@@XZ
?getPlayerId@IdentityDefinition@@QEBAAEBUPlayerScoreboardId@@XZ
?getPlayerLevel@Player@@QEBAHXZ
?getPlayerOwner@Actor@@QEBAPEAVPlayer@@XZ
?getPlayerScore@Objective@@QEBA?AUScoreInfo@@AEBUScoreboardId@@@Z
?getPlayerUIItem@Player@@QEAAAEBVItemStack@@W4PlayerUISlot@@@Z
?getPosDelta@Actor@@QEBAAEBVVec3@@XZ
?getPosPrev@Actor@@QEBAAEBVVec3@@XZ
?getPosition@Actor@@QEBAAEBVVec3@@XZ
?getPosition@LevelChunk@@QEBAAEBVChunkPos@@XZ
?getPreRelease@SemVersion@@QEBAAEBV?$basic_string@DU?$char_traits@D@std@@V?$allocator@D@2@@std@@XZ
?getPreliminarySurfaceLevel@WorldGenerator@@UEBA?AV?$optional@F@std@@V?$DividedPos2d@$03@@@Z
?getRandom@Actor@@QEBAAEAVRandom@@XZ
?getRandomChunk@ChunkSource@@UEAA?AV?$shared_ptr@VLevelChunk@@@std@@AEAVRandom@@@Z
?getRecipesAllTags@Recipes@@QEBAAEBV?$map@VHashedString@@V?$map@V?$basic_string@DU?$char_traits@D@std@@V?$allocator@D@2@@std@@V?$shared_ptr@VRecipe@@@2@U?$less@V?$basic_string@DU?$char_traits@D@std@@V?$allocator@D@2@@std@@@2@V?$allocator@U?$pair@$$CBV?$basic_string@DU?$char_traits@D@std@@V?$allocator@D@2@@std@@V?$shared_ptr@VRecipe@@@2@@std@@@2@@std@@U?$less@VHashedString@@@3@V?$allocator@U?$pair@$$CBVHashedString@@V?$map@V?$basic_string@DU?$char_traits@D@std@@V?$allocator@D@2@@std@@V?$shared_ptr@VRecipe@@@
?getRequestId@ActorCommandOrigin@@UEBAAEBV?$basic_string@DU?$char_traits@D@std@@V?$allocator@D@2@@std@@XZ
?getRequestId@PlayerCommandOrigin@@UEBAAEBV?$basic_string@DU?$char_traits@D@std@@V?$allocator@D@2@@std@@XZ
?getRequestId@ServerCommandOrigin@@UEBAAEBV?$basic_string@DU?$char_traits@D@std@@V?$allocator@D@2@@std@@XZ
?getResourceDrops@BlockLegacy@@QEBA?AUResourceDrops@@AEBVBlock@@AEAVRandomize@@AEBUResourceDropsContext@@@Z
?getRotation@Actor@@QEBAAEBVVec2@@XZ
?getRotation@ActorCommandOrigin@@UEBA?AV?$optional@VVec2@@@std@@XZ
?getRotation@PlayerCommandOrigin@@UEBA?AV?$optional@VVec2@@@std@@XZ
?getRotation@ServerCommandOrigin@@UEBA?AV?$optional@VVec2@@@std@@XZ
?getRules@GameRules@@QEBAAEBV?$vector@VGameRule@@V?$allocator@VGameRule@@@std@@@std@@XZ
?getRuntimeID@Actor@@QEBA?AVActorRuntimeID@@XZ
?getRuntimeId@Block@@QEBAAEBIXZ
?getScoreboardId@Scoreboard@@QEBAAEBUScoreboardId@@AEBUActorUniqueID@@@Z
?getScoreboardId@Scoreboard@@QEBAAEBUScoreboardId@@AEBUPlayerScoreboardId@@@Z
?getScoreboardId@Scoreboard@@QEBAAEBUScoreboardId@@AEBV?$basic_string@DU?$char_traits@D@std@@V?$allocator@D@2@@std@@@Z
?getScoreboardId@Scoreboard@@QEBAAEBUScoreboardId@@AEBVActor@@@Z
?getScoreboardId@Scoreboard@@QEBAAEBUScoreboardId@@AEBVPlayer@@@Z
?getScreenContext@ItemStackRequestActionHandler@@QEBAAEBVContainerScreenContext@@XZ
?getSeenPercent@BlockSource@@QEAAMAEBVVec3@@AEBVAABB@@@Z
?getSelectedItem@Player@@QEBAAEBVItemStack@@XZ
?getSerializedName@Item@@QEBA?AV?$basic_string@DU?$char_traits@D@std@@V?$allocator@D@2@@std@@XZ
?getServerPort@PropertiesSettings@@QEBAGXZ
?getServerPortv6@PropertiesSettings@@QEBAGXZ
?getServerTickTime@ProfilerLite@@QEBA?AV?$duration@_JU?$ratio@$00$0DLJKMKAA@@std@@@chrono@std@@XZ
?getSourceId@CommandOrigin@@UEBAAEBVNetworkIdentifier@@XZ
?getSourceId@PlayerCommandOrigin@@UEBAAEBVNetworkIdentifier@@XZ
?getSourceSubId@CommandOrigin@@UEBA?AW4SubClientId@@XZ
?getSourceSubId@PlayerCommandOrigin@@UEBA?AW4SubClientId@@XZ
?getSpawnDimension@Player@@QEBA?AV?$AutomaticID@VDimension@@H@@XZ
?getSpawnPos@Dimension@@UEBA?AVBlockPos@@XZ
?getSpawnPos@LevelData@@QEBAAEBVBlockPos@@XZ
?getSpawnPosition@Player@@QEBAAEBVBlockPos@@XZ
?getSpawnSettings@LevelSettings@@QEBA?AUSpawnSettings@@XZ
?getSpawnYPosition@Dimension@@UEBAHXZ
?getSpreadFromFaceTowardDirection@MultifaceSpreader@@QEBA?AV?$optional@U?$pair@$$CBVBlockPos@@$$CBE@std@@@std@@AEAVIBlockWorldGenAPI@@AEBVBlock@@1AEBVBlockPos@@EE@Z
?getStackSize@ItemDescriptorCount@@QEBAFXZ
?getStorage@ChunkSource@@UEBAAEBV?$unordered_map@VChunkPos@@V?$weak_ptr@VLevelChunk@@@std@@U?$hash@VChunkPos@@@3@U?$equal_to@VChunkPos@@@3@V?$allocator@U?$pair@$$CBVChunkPos@@V?$weak_ptr@VLevelChunk@@@std@@@std@@@3@@std@@XZ
?getStringId@Enchant@@QEBAAEBVHashedString@@XZ
?getSuccessCount@CommandOutput@@QEBAHXZ
?getText@CommandRawText@@QEBAAEBV?$basic_string@DU?$char_traits@D@std@@V?$allocator@D@2@@std@@XZ
?getThreadLocal@Random@@SAAEAV1@XZ
?getTickQueue@LevelChunk@@QEAAAEAVBlockTickingQueue@@XZ
?getTimeOfDay@Dimension@@UEBAMHM@Z
?getTrackedIds@Scoreboard@@QEBA?AV?$vector@UScoreboardId@@V?$allocator@UScoreboardId@@@std@@@std@@XZ
?getType@?$DataItem2@V?$basic_string@DU?$char_traits@D@std@@V?$allocator@D@2@@std@@@@UEBA?AW4DataItemType@@XZ
?getType@DefaultDataLoadHelper@@UEBA?AW4DataLoadHelperType@@XZ
?getType@GameRule@@QEBA?AW4Type@1@XZ
?getType@NewUniqueIdsDataLoadHelper@@UEBA?AW4DataLoadHelperType@@XZ
?getUUID@CommandOrigin@@UEBAAEBVUUID@mce@@XZ
?getUserData@ItemStackBase@@QEBAPEBVCompoundTag@@XZ
?getVehicle@Actor@@QEBAPEAV1@XZ
?getViewVector@Actor@@QEBA?AVVec3@@M@Z
?getWeakEntity@Actor@@QEBA?BV?$WeakRef@VEntityContext@@@@XZ
?getWeakRef@EntityContext@@QEBA?AV?$WeakRef@VEntityContext@@@@XZ
?getWorldGenerator@Dimension@@QEBAPEAVWorldGenerator@@XZ
?getWorldPosition@ActorCommandOrigin@@UEBA?AVVec3@@XZ
?getWorldPosition@PlayerCommandOrigin@@UEBA?AVVec3@@XZ
?getWorldPosition@ServerCommandOrigin@@UEBA?AVVec3@@XZ
?getXpNeededForNextLevel@Player@@QEBAHXZ
?getXuid@ExtendedCertificate@@SA?AV?$basic_string@DU?$char_traits@D@std@@V?$allocator@D@2@@std@@AEBVCertificate@@_N@Z
?getXuid@GameServerToken@@QEBA?AV?$basic_string@DU?$char_traits@D@std@@V?$allocator@D@2@@std@@_N@Z
?givePlayer@LootTableUtils@Util@@SAHAEAVPlayer@@AEAV?$vector@VItemStack@@V?$allocator@VItemStack@@@std@@@std@@_N@Z
?handle@?$PacketHandlerDispatcherInstance@VModalFormResponsePacket@@$0A@@@QEBAXAEBVNetworkIdentifier@@AEAVNetEventCallback@@AEAV?$shared_ptr@VPacket@@@std@@@Z
?handleCommandOutputCallback@CommandOrigin@@UEBAXH$$QEAV?$basic_string@DU?$char_traits@D@std@@V?$allocator@D@2@@std@@@Z
?handleRequestAction@ItemStackRequestActionHandler@@QEAA?AW4ItemStackNetResult@@AEBVItemStackRequestAction@@@Z
?has@FixedBiomeSource@@UEBA_N_K@Z
?hasBlockEntity@Block@@QEBA_NXZ
?hasByHashId@FixedBiomeSource@@UEBA_N_K@Z
?hasCategory@Actor@@QEBA_NW4ActorCategory@@@Z
?hasChatPerms@CommandOrigin@@UEBA_NXZ
?hasDamageValue@ItemStackBase@@QEBA_NXZ
?hasEffect@Actor@@QEBA_NAEBVMobEffect@@@Z
?hasEnchant@EnchantUtils@@SA_NW4Type@Enchant@@AEBVItemStackBase@@@Z
?hasFamily@Actor@@QEBA_NAEBVHashedString@@@Z
?hasRespawnPosition@Player@@QEBA_NXZ
?hasScore@Objective@@QEBA_NAEBUScoreboardId@@@Z
?hasTellPerms@CommandOrigin@@UEBA_NXZ
?hasType@Actor@@QEBA_NW4ActorType@@@Z
?hash@ByteArrayTag@@UEBA_KXZ
?hash@ByteTag@@UEBA_KXZ
?hash@CompoundTag@@UEBA_KXZ
?hash@DoubleTag@@UEBA_KXZ
?hash@EndTag@@UEBA_KXZ
?hash@FloatTag@@UEBA_KXZ
?hash@Int64Tag@@UEBA_KXZ
?hash@IntArrayTag@@UEBA_KXZ
?hash@IntTag@@UEBA_KXZ
?hash@ListTag@@UEBA_KXZ
?hash@ShortTag@@UEBA_KXZ
?hash@StringTag@@UEBA_KXZ
?hintDiscardBatchBegin@ChunkSource@@UEAAXXZ
?hintDiscardBatchEnd@ChunkSource@@UEAAXXZ
?hurt@Actor@@QEAA_NAEBVActorDamageSource@@M_N1@Z
?hurtAndBreak@ItemStackBase@@QEAA_NHPEAVActor@@@Z
?init@Dimension@@UEAAXAEBVStructureSetRegistry@worldgen@br@@@Z
?init@Minecraft@@QEAAXXZ
?initBiomes@VanillaBiomes@@SAXAEAVBiomeRegistry@@AEBUSpawnSettings@@AEBVBaseGameVersion@@AEBVExperiments@@@Z
?initialize@ActorDefinitionIdentifier@@QEAAXAEBV?$basic_string@DU?$char_traits@D@std@@V?$allocator@D@2@@std@@@Z
?initializeWithLevelStorageManagerConnector@Dimension@@UEAAXAEAVILevelStorageManagerConnector@@@Z
?interact@Player@@QEAA_NAEAVActor@@AEBVVec3@@@Z
?intersects@AABB@@QEBA_NAEBV1@@Z
?is2DPositionRelevantForPlayer@Dimension@@UEBA_NAEBVBlockPos@@AEAVPlayer@@@Z
?isActorRelevantForPlayer@Dimension@@UEBA_NAEAVPlayer@@AEBVActor@@@Z
?isAdventure@Actor@@QEBA_NXZ
?isAir@Block@@QEBA_NXZ
?isArmorItem@ItemStackBase@@QEBA_NXZ
?isBlockSource@ActorDamageSource@@UEBA_NXZ
?isChildEntitySource@ActorDamageSource@@UEBA_NXZ
?isChunkKnown@ChunkSource@@UEAA_NAEBVChunkPos@@@Z
?isChunkSaved@ChunkSource@@UEAA_NAEBVChunkPos@@@Z
?isClientSide@Actor@@QEBA_NXZ
?isClientSideGenEnabled@PropertiesSettings@@QEBA_NXZ
?isComplexAliasBlock@BlockTypeRegistry@@SA_NAEBVHashedString@@@Z
?isContainerBlock@Block@@QEBA_NXZ
?isCreative@Actor@@QEBA_NXZ
?isDamageableItem@ItemStackBase@@QEBA_NXZ
?isDataEqual@?$DataItem2@V?$basic_string@DU?$char_traits@D@std@@V?$allocator@D@2@@std@@@@UEBA_NAEBVDataItem@@@Z
?isDead@Actor@@QEBA_NXZ
?isEmptyBlock@BlockSource@@QEAA_NHHH@Z
?isEnchanted@ItemStackBase@@QEBA_NXZ
?isEntitySource@ActorDamageSource@@UEBA_NXZ
?isExpansionAllowed@CommandSelectorBase@@QEBA_NAEBVCommandOrigin@@@Z
?isExperimentEnabled@Experiments@@QEBA_NW4AllExperiments@@@Z
?isFallDamage@ActorDamageSource@@UEBA_NXZ
?isFallingBlockDamage@ActorDamageSource@@UEBA_NXZ
?isFire@ActorDamageSource@@UEBA_NXZ
?isFlying@Player@@QEBA_NXZ
?isInWater@Actor@@QEBA_NXZ
?isInteractiveBlock@Block@@QEBA_NXZ
?isInvertedHealAndHarm@Actor@@QEBA_NXZ
?isLightning@LevelData@@QEBA_NXZ
?isNaturalDimension@Dimension@@UEBA_NXZ
?isNull@ItemDescriptor@@QEBA_NXZ
?isNull@ItemStackBase@@QEBA_NXZ
?isOnGround@ActorCollision@@YA_NAEBVEntityContext@@@Z
?isPassenger@Actor@@QEBA_NAEBV1@@Z
?isPlayer@Actor@@QEBA_NXZ
?isRaining@LevelData@@QEBA_NXZ
?isReducedByArmorReduction@ActorDamageSource@@UEBA_NXZ
?isReducedByEnchantReduction@ActorDamageSource@@UEBA_NXZ
?isReducedByResistanceEffect@ActorDamageSource@@UEBA_NXZ
?isRemoved@Actor@@QEBA_NXZ
?isRetracting@PistonBlockActor@@QEBA_NXZ
?isRiding@Actor@@QEBA_NXZ
?isSelectorExpansionAllowed@ActorCommandOrigin@@UEBA_NXZ
?isSelectorExpansionAllowed@CommandOrigin@@UEBA_NXZ
?isSelectorExpansionAllowed@PlayerCommandOrigin@@UEBA_NXZ
?isSelectorExpansionAllowed@ServerCommandOrigin@@UEBA_NXZ
?isShutdownDone@ChunkSource@@UEAA_NXZ
?isSolidBlockingBlock@Block@@QEBA_NXZ
?isStackable@ItemStackBase@@QEBA_NAEBV1@@Z
?isStructureFeatureTypeAt@FlatWorldGenerator@@UEBA_NAEBVBlockPos@@VHashedString@@@Z
?isSurvival@Actor@@QEBA_NXZ
?isSwimming@Actor@@QEBA_NXZ
?isTame@Actor@@QEBA_NXZ
?isTrustedSkin@SerializedSkin@@QEBA_NXZ
?isType@Actor@@QEBA_NW4ActorType@@@Z
?isValid@ActorCommandOrigin@@UEBA_NXZ
?isValid@ItemDescriptor@@QEBA_N_N@Z
?isValid@Packet@@UEBA_NXZ
?isValid@PlayerCommandOrigin@@UEBA_NXZ
?isValid@ScoreboardId@@QEBA_NXZ
?isValid@ServerCommandOrigin@@UEBA_NXZ
?isValidFireLocation@FireBlock@@QEBA_NAEAVBlockSource@@AEBVBlockPos@@@Z
?isValidSpawn@Dimension@@UEBA_NHH@Z
?isWithinWorldLimit@ChunkSource@@UEBA_NAEBVChunkPos@@@Z
?isWorldBuilder@CommandOrigin@@UEBA_NXZ
?itemAllowed@ShulkerBoxBlockActor@@SA_NAEBVItemStackBase@@@Z
?leaveGameSync@ServerInstance@@QEAAXXZ
?levelChunkNeedsUpgrade@VanillaLevelChunkUpgrade@@YA_NAEBVLevelChunk@@@Z
?levelEvent@LevelListener@@UEAAXW4LevelEvent@Legacy@SharedTypes@@AEBVCompoundTag@@@Z
?levelEvent@LevelListener@@UEAAXW4LevelEvent@Legacy@SharedTypes@@AEBVVec3@@H@Z
?load@ByteArrayTag@@UEAA?AV?$Result@XVerror_code@std@@@Bedrock@@AEAVIDataInput@@@Z
?load@ByteTag@@UEAA?AV?$Result@XVerror_code@std@@@Bedrock@@AEAVIDataInput@@@Z
?load@CompoundTag@@UEAA?AV?$Result@XVerror_code@std@@@Bedrock@@AEAVIDataInput@@@Z
?load@DoubleTag@@UEAA?AV?$Result@XVerror_code@std@@@Bedrock@@AEAVIDataInput@@@Z
?load@EndTag@@UEAA?AV?$Result@XVerror_code@std@@@Bedrock@@AEAVIDataInput@@@Z
?load@FloatTag@@UEAA?AV?$Result@XVerror_code@std@@@Bedrock@@AEAVIDataInput@@@Z
?load@Int64Tag@@UEAA?AV?$Result@XVerror_code@std@@@Bedrock@@AEAVIDataInput@@@Z
?load@IntArrayTag@@UEAA?AV?$Result@XVerror_code@std@@@Bedrock@@AEAVIDataInput@@@Z
?load@IntTag@@UEAA?AV?$Result@XVerror_code@std@@@Bedrock@@AEAVIDataInput@@@Z
?load@ItemStackBase@@QEAAXAEBVCompoundTag@@@Z
?load@ListTag@@UEAA?AV?$Result@XVerror_code@std@@@Bedrock@@AEAVIDataInput@@@Z
?load@MobEffectInstance@@SA?AV1@AEBVCompoundTag@@@Z
?load@ShortTag@@UEAA?AV?$Result@XVerror_code@std@@@Bedrock@@AEAVIDataInput@@@Z
?load@StringTag@@UEAA?AV?$Result@XVerror_code@std@@@Bedrock@@AEAVIDataInput@@@Z
?loadActor@ActorFactory@@QEAA?AV?$OwnerPtr@VEntityContext@@@@PEAVCompoundTag@@AEAVDataLoadHelper@@AEBVDimensionHeightRange@@PEBVLevelChunk@@@Z
?loadActorInternalComponentInfo@DefaultDataLoadHelper@@UEAAPEBUComponentInfo@InternalComponentRegistry@@AEBV?$unordered_map@VHashedString@@UComponentInfo@InternalComponentRegistry@@U?$hash@VHashedString@@@std@@U?$equal_to@VHashedString@@@5@V?$allocator@U?$pair@$$CBVHashedString@@UComponentInfo@InternalComponentRegistry@@@std@@@5@@std@@AEBV?$basic_string@DU?$char_traits@D@std@@V?$allocator@D@2@@5@@Z
?loadActorInternalComponentInfo@NewUniqueIdsDataLoadHelper@@UEAAPEBUComponentInfo@InternalComponentRegistry@@AEBV?$unordered_map@VHashedString@@UComponentInfo@InternalComponentRegistry@@U?$hash@VHashedString@@@std@@U?$equal_to@VHashedString@@@5@V?$allocator@U?$pair@$$CBVHashedString@@UComponentInfo@InternalComponentRegistry@@@std@@@5@@std@@AEBV?$basic_string@DU?$char_traits@D@std@@V?$allocator@D@2@@5@@Z
?loadActorUniqueID@DefaultDataLoadHelper@@UEAA?AUActorUniqueID@@U2@@Z
?loadActorUniqueID@NewUniqueIdsDataLoadHelper@@UEAA?AUActorUniqueID@@U2@@Z
?loadBlockPosition@DefaultDataLoadHelper@@UEAA?AVBlockPos@@AEBV2@@Z
?loadBlockPosition@NewUniqueIdsDataLoadHelper@@UEAA?AVBlockPos@@AEBV2@@Z
?loadBlockPositionOffset@DefaultDataLoadHelper@@UEAA?AVBlockPos@@AEBV2@@Z
?loadBlockPositionOffset@NewUniqueIdsDataLoadHelper@@UEAA?AVBlockPos@@AEBV2@@Z
?loadDirection@DefaultDataLoadHelper@@UEAA?AVVec3@@AEBV2@@Z
?loadDirection@DefaultDataLoadHelper@@UEAA?AW4Type@Direction@@W423@@Z
?loadDirection@NewUniqueIdsDataLoadHelper@@UEAA?AVVec3@@AEBV2@@Z
?loadDirection@NewUniqueIdsDataLoadHelper@@UEAA?AW4Type@Direction@@W423@@Z
?loadFacingID@DefaultDataLoadHelper@@UEAAEE@Z
?loadFacingID@NewUniqueIdsDataLoadHelper@@UEAAEE@Z
?loadLevelChunkMetaDataDictionary@ChunkSource@@UEAA?AV?$shared_ptr@VLevelChunkMetaDataDictionary@@@std@@XZ
?loadMirror@DefaultDataLoadHelper@@UEAA?AW4Mirror@@W42@@Z
?loadMirror@NewUniqueIdsDataLoadHelper@@UEAA?AW4Mirror@@W42@@Z
?loadOwnerID@DefaultDataLoadHelper@@UEAA?AUActorUniqueID@@U2@@Z
?loadOwnerID@NewUniqueIdsDataLoadHelper@@UEAA?AUActorUniqueID@@U2@@Z
?loadPosition@DefaultDataLoadHelper@@UEAA?AVVec3@@AEBV2@@Z
?loadPosition@NewUniqueIdsDataLoadHelper@@UEAA?AVVec3@@AEBV2@@Z
?loadRecipe@Recipes@@QEAA_NAEBU?$pair@V?$basic_string@DU?$char_traits@D@std@@V?$allocator@D@2@@std@@VValue@Json@@@std@@AEBVMinEngineVersion@@AEBVSemVersion@@_N@Z
?loadRotation@DefaultDataLoadHelper@@UEAA?AW4Rotation@@W42@@Z
?loadRotation@NewUniqueIdsDataLoadHelper@@UEAA?AW4Rotation@@W42@@Z
?loadRotationDegreesX@DefaultDataLoadHelper@@UEAAMM@Z
?loadRotationDegreesX@NewUniqueIdsDataLoadHelper@@UEAAMM@Z
?loadRotationDegreesY@DefaultDataLoadHelper@@UEAAMM@Z
?loadRotationDegreesY@NewUniqueIdsDataLoadHelper@@UEAAMM@Z
?loadRotationRadiansX@DefaultDataLoadHelper@@UEAAMM@Z
?loadRotationRadiansX@NewUniqueIdsDataLoadHelper@@UEAAMM@Z
?loadRotationRadiansY@DefaultDataLoadHelper@@UEAAMM@Z
?loadRotationRadiansY@NewUniqueIdsDataLoadHelper@@UEAAMM@Z
?loadServerPlayerData@LevelStorage@@QEAA?AV?$unique_ptr@VCompoundTag@@U?$default_delete@VCompoundTag@@@std@@@std@@AEBVPlayer@@_N@Z
?loadStatic@BlockActor@@SA?AV?$shared_ptr@VBlockActor@@@std@@AEAVILevel@@AEBVCompoundTag@@AEAVDataLoadHelper@@@Z
?log_va@BedrockLog@@YAXW4LogCategory@1@V?$bitset@$02@std@@W4LogRule@1@W4LogAreaID@@IPEBDH4PEAD@Z
?lookupByHash@BiomeRegistry@@QEAAPEAVBiome@@AEBVHashedString@@@Z
?lookupByName@BiomeRegistry@@QEAAPEAVBiome@@AEBV?$basic_string@DU?$char_traits@D@std@@V?$allocator@D@2@@std@@@Z
?lookupByName@BiomeRegistry@@QEBAPEAVBiome@@AEBV?$basic_string@DU?$char_traits@D@std@@V?$allocator@D@2@@std@@@Z
?lookupByName@BlockTypeRegistry@@SA?AV?$WeakPtr@VBlockLegacy@@@@AEBVHashedString@@_N@Z
?lookupCause@ActorDamageSource@@SA?AW4ActorDamageCause@@AEBV?$basic_string@DU?$char_traits@D@std@@V?$allocator@D@2@@std@@@Z
?mMayTake@EnderMan@@SAAEAV?$set@PEBVBlock@@U?$less@PEBVBlock@@@std@@V?$allocator@PEBVBlock@@@3@@std@@XZ
?mServer@StopCommand@@SAAEAPEAVDedicatedServer@@XZ
?matchesItem@ItemStackBase@@QEBA_NAEBV1@@Z
?mayRespawnViaBed@Dimension@@UEBA_NXZ
?modifyPlayerScore@Scoreboard@@QEAAHAEA_NAEBUScoreboardId@@AEAVObjective@@HW4PlayerScoreSetFunction@@@Z
?move@ChunkViewSource@@QEAAXAEBUBounds@@_NW4ChunkSourceViewGenerateMode@@V?$function@$$A6AXV?$buffer_span_mut@V?$shared_ptr@VLevelChunk@@@std@@@@V?$buffer_span@I@@@Z@std@@PEBM@Z
?move@ChunkViewSource@@QEAAXAEBVBlockPos@@0_NW4ChunkSourceViewGenerateMode@@V?$function@$$A6AXV?$buffer_span_mut@V?$shared_ptr@VLevelChunk@@@std@@@@V?$buffer_span@I@@@Z@std@@PEBM@Z
?move@ChunkViewSource@@QEAAXAEBVBlockPos@@H_NW4ChunkSourceViewGenerateMode@@V?$function@$$A6AXV?$buffer_span_mut@V?$shared_ptr@VLevelChunk@@@std@@@@V?$buffer_span@I@@@Z@std@@PEBM@Z
?movedByPiston@Block@@QEBAXAEAVBlockSource@@AEBVBlockPos@@@Z
?nameToGameRuleIndex@GameRules@@QEBA?AUGameRuleId@@AEBV?$basic_string@DU?$char_traits@D@std@@V?$allocator@D@2@@std@@@Z
?numBytesLeft@StringByteInput@@UEBA_KXZ
?numBytesLeft@VarIntDataInput@@UEBA_KXZ
?onAreaChanged@BlockSourceListener@@UEAAXAEAVBlockSource@@AEBVBlockPos@@1@Z
?onBlockChanged@BlockSourceListener@@UEAAXAEAVBlockSource@@AEBVBlockPos@@IAEBVBlock@@2HPEBUActorBlockSyncMessage@@W4BlockChangedEventTarget@@PEAVActor@@@Z
?onBlockChanged@Dimension@@UEAAXAEAVBlockSource@@AEBVBlockPos@@IAEBVBlock@@2HPEBUActorBlockSyncMessage@@W4BlockChangedEventTarget@@PEAVActor@@@Z
?onBlockEntityChanged@BlockSourceListener@@UEAAXAEAVBlockSource@@AEAVBlockActor@@@Z
?onBlockEvent@BlockSourceListener@@UEAAXAEAVBlockSource@@HHHHH@Z
?onBlockEvent@Dimension@@UEAAXAEAVBlockSource@@HHHHH@Z
?onBrightnessChanged@BlockSourceListener@@UEAAXAEAVBlockSource@@AEBVBlockPos@@@Z
?onChunkLoaded@Dimension@@UEAAXAEAVChunkSource@@AEAVLevelChunk@@@Z
?onChunkReloaded@LevelListener@@UEAAXAEAVChunkSource@@AEAVLevelChunk@@@Z
?onChunkUnloaded@LevelListener@@UEAAXAEAVLevelChunk@@@Z
?onClimbableBlock@Actor@@QEBA_NXZ
?onEntityAdded@LevelListener@@UEAAXAEAVActor@@@Z
?onEntityChanged@BlockSourceListener@@UEAAXAEAVBlockSource@@AEAVActor@@@Z
?onEntityRemoved@LevelListener@@UEAAXAEAVActor@@@Z
?onFallOn@Block@@QEBAXAEAVBlockSource@@AEBVBlockPos@@AEAVActor@@M@Z
?onFertilized@Block@@QEBA_NAEAVBlockSource@@AEBVBlockPos@@PEAVActor@@W4FertilizerType@@@Z
?onLevelDataCommandsChanged@LevelListener@@UEAAX_N@Z
?onLevelDataWorldTemplateOptionsUnlocked@LevelListener@@UEAAXXZ
?onLevelDestruction@Dimension@@UEAAXAEBV?$basic_string@DU?$char_traits@D@std@@V?$allocator@D@2@@std@@@Z
?onPlace@FireBlock@@QEBAXAEAVBlockPlaceEvent@BlockEvents@@@Z
?onSourceCreated@BlockSourceListener@@UEAAXAEAVBlockSource@@@Z
?onSourceDestroyed@BlockSourceHandle@@UEAAXAEAVBlockSource@@@Z
?onSourceDestroyed@BlockSourceListener@@UEAAXAEAVBlockSource@@@Z
?onStartDestroyBlock@ServerPlayerBlockUseHandler@@YAXAEAVServerPlayer@@AEBVBlockPos@@H@Z
?onSubChunkLoaded@LevelListener@@UEAAXAEAVChunkSource@@AEAVLevelChunk@@F_N@Z
?parse@ExpressionNode@@QEAA_NAEBV?$basic_string@DU?$char_traits@D@std@@V?$allocator@D@2@@std@@W4MolangVersion@@V?$span@$$CBVHashedString@@$0?0@gsl@@@Z
?parse@Reader@Json@@QEAA_NAEBV?$basic_string@DU?$char_traits@D@std@@V?$allocator@D@2@@std@@AEAVValue@2@_N@Z
?persistPlayerPermissionsToDisk@ServerNetworkHandler@@QEAAXAEBVUserEntityIdentifierComponent@@W4PlayerPermissionLevel@@@Z
?placeInWorld@StructureTemplate@@QEBAXAEAVBlockSource@@AEBVBlockPalette@@AEBVBlockPos@@AEBVStructureSettings@@PEAVStructureTelemetryServerData@@_N@Z
?playMusic@LevelListener@@UEAAXAEBV?$basic_string@DU?$char_traits@D@std@@V?$allocator@D@2@@std@@AEBVVec3@@MM@Z
?playStreamingMusic@LevelListener@@UEAAXAEBV?$basic_string@DU?$char_traits@D@std@@V?$allocator@D@2@@std@@HHH@Z
?playerDestroy@Block@@QEBAXAEAVPlayer@@AEBVBlockPos@@@Z
?playerListChanged@LevelListener@@UEAAXXZ
?playerWillDestroy@Block@@QEBAPEBV1@AEAVPlayer@@AEBVBlockPos@@@Z
?postNormalTick@ItemActor@@QEAAXXZ
?postProcess@FlatWorldGenerator@@UEAA_NAEAVChunkViewSource@@@Z
?postProcessMobsAt@WorldGenerator@@UEAAXAEAVBlockSource@@HHAEAVRandom@@@Z
?postProcessMobsAt@WorldGenerator@@UEBAXAEAVBlockSource@@AEBVBoundingBox@@@Z
?prepareAndComputeHeights@FlatWorldGenerator@@UEAAXAEAVBlockVolume@@AEBVChunkPos@@AEAV?$vector@FV?$allocator@F@std@@@std@@_NH@Z
?prepareFromRecipes@CraftingDataPacket@@SA?AV?$unique_ptr@VCraftingDataPacket@@U?$default_delete@VCraftingDataPacket@@@std@@@std@@AEBVRecipes@@_N@Z
?prepareHeights@FlatWorldGenerator@@UEAAXAEAVBlockVolume@@AEBVChunkPos@@_N@Z
?print@CompoundTag@@UEBAXAEBV?$basic_string@DU?$char_traits@D@std@@V?$allocator@D@2@@std@@AEAVPrintStream@@@Z
?print@ListTag@@UEBAXAEBV?$basic_string@DU?$char_traits@D@std@@V?$allocator@D@2@@std@@AEAVPrintStream@@@Z
?print@Tag@@UEBAXAEAVPrintStream@@@Z
?print@Tag@@UEBAXAEBV?$basic_string@DU?$char_traits@D@std@@V?$allocator@D@2@@std@@AEAVPrintStream@@@Z
?processPendingAdds@CircuitSceneGraph@@QEAAXXZ
?pullInEntity@Actor@@QEAA_NAEAV1@@Z
?push@PushableComponent@@QEAAXAEAVActor@@0_N@Z
?push@PushableComponent@@QEAAXAEAVActor@@AEBVVec3@@@Z
?randomTick@Block@@QEBAXAEAVBlockSource@@AEBVBlockPos@@AEAVRandom@@@Z
?read@NbtIo@@YA?AV?$Result@V?$unique_ptr@VCompoundTag@@U?$default_delete@VCompoundTag@@@std@@@std@@Verror_code@2@@Bedrock@@AEAVIDataInput@@@Z
?read@Packet@@UEAA?AV?$Result@XVerror_code@std@@@Bedrock@@AEAVReadOnlyBinaryStream@@@Z
?read@ReadOnlyBinaryStream@@UEAA?AV?$Result@XVerror_code@std@@@Bedrock@@PEAX_K@Z
?readBigEndianBytesResult@BigEndianStringByteInput@@UEAA?AV?$Result@XVerror_code@std@@@Bedrock@@PEAX_K@Z
?readByteResult@BytesDataInput@@UEAA?AV?$Result@EVerror_code@std@@@Bedrock@@XZ
?readByteResult@VarIntDataInput@@UEAA?AV?$Result@EVerror_code@std@@@Bedrock@@XZ
?readBytesResult@BigEndianStringByteInput@@UEAA?AV?$Result@XVerror_code@std@@@Bedrock@@PEAX_K@Z
?readBytesResult@VarIntDataInput@@UEAA?AV?$Result@XVerror_code@std@@@Bedrock@@PEAX_K@Z
?readDoubleResult@BigEndianStringByteInput@@UEAA?AV?$Result@NVerror_code@std@@@Bedrock@@XZ
?readDoubleResult@BytesDataInput@@UEAA?AV?$Result@NVerror_code@std@@@Bedrock@@XZ
?readDoubleResult@VarIntDataInput@@UEAA?AV?$Result@NVerror_code@std@@@Bedrock@@XZ
?readFloatResult@BigEndianStringByteInput@@UEAA?AV?$Result@MVerror_code@std@@@Bedrock@@XZ
?readFloatResult@BytesDataInput@@UEAA?AV?$Result@MVerror_code@std@@@Bedrock@@XZ
?readFloatResult@VarIntDataInput@@UEAA?AV?$Result@MVerror_code@std@@@Bedrock@@XZ
?readIntResult@BigEndianStringByteInput@@UEAA?AV?$Result@HVerror_code@std@@@Bedrock@@XZ
?readIntResult@BytesDataInput@@UEAA?AV?$Result@HVerror_code@std@@@Bedrock@@XZ
?readIntResult@VarIntDataInput@@UEAA?AV?$Result@HVerror_code@std@@@Bedrock@@XZ
?readLongLongResult@BigEndianStringByteInput@@UEAA?AV?$Result@_JVerror_code@std@@@Bedrock@@XZ
?readLongLongResult@BytesDataInput@@UEAA?AV?$Result@_JVerror_code@std@@@Bedrock@@XZ
?readLongLongResult@VarIntDataInput@@UEAA?AV?$Result@_JVerror_code@std@@@Bedrock@@XZ
?readLongStringResult@BytesDataInput@@UEAA?AV?$Result@V?$basic_string@DU?$char_traits@D@std@@V?$allocator@D@2@@std@@Verror_code@2@@Bedrock@@XZ
?readLongStringResult@VarIntDataInput@@UEAA?AV?$Result@V?$basic_string@DU?$char_traits@D@std@@V?$allocator@D@2@@std@@Verror_code@2@@Bedrock@@XZ
?readShortResult@BigEndianStringByteInput@@UEAA?AV?$Result@FVerror_code@std@@@Bedrock@@XZ
?readShortResult@BytesDataInput@@UEAA?AV?$Result@FVerror_code@std@@@Bedrock@@XZ
?readShortResult@VarIntDataInput@@UEAA?AV?$Result@FVerror_code@std@@@Bedrock@@XZ
?readStringResult@BytesDataInput@@UEAA?AV?$Result@V?$basic_string@DU?$char_traits@D@std@@V?$allocator@D@2@@std@@Verror_code@2@@Bedrock@@XZ
?readStringResult@VarIntDataInput@@UEAA?AV?$Result@V?$basic_string@DU?$char_traits@D@std@@V?$allocator@D@2@@std@@Verror_code@2@@Bedrock@@XZ
?recomputeHeightMap@LevelChunk@@QEAAX_N@Z
?registerAlias@CommandRegistry@@QEAAXV?$basic_string@DU?$char_traits@D@std@@V?$allocator@D@2@@std@@0@Z
?registerCommand@CommandRegistry@@QEAAXAEBV?$basic_string@DU?$char_traits@D@std@@V?$allocator@D@2@@std@@PEBDW4CommandPermissionLevel@@UCommandFlag@@3@Z
?registerCustomBiome@BiomeRegistry@@QEAAAEAVBiome@@AEBV?$basic_string@DU?$char_traits@D@std@@V?$allocator@D@2@@std@@@Z
?registerOverloadInternal@CommandRegistry@@QEAAXAEAUSignature@1@AEAUOverload@1@@Z
?reinit@ItemStack@@UEAAXAEBVBlockLegacy@@H@Z
?reinit@ItemStack@@UEAAXAEBVItem@@HH@Z
?reinit@ItemStack@@UEAAXV?$basic_string_view@DU?$char_traits@D@std@@@std@@HH@Z
?remove@ItemStackBase@@QEAAXH@Z
?removeBlockEntity@LevelChunk@@QEAA?AV?$shared_ptr@VBlockActor@@@std@@AEBVBlockPos@@@Z
?removeCakeSlice@CakeBlock@@SAXAEAVPlayer@@AEAVBlockSource@@AEBVBlockPos@@PEBVBlock@@@Z
?removeComponent@CircuitSceneGraph@@QEAAXAEBVBlockPos@@@Z
?removeEffect@Actor@@QEAAXH@Z
?removeEnchants@EnchantUtils@@SAXAEAVItemStack@@@Z
?removeObjective@Scoreboard@@QEAA_NPEAVObjective@@@Z
?removeSoftEnumValues@CommandRegistry@@QEAAXAEBV?$basic_string@DU?$char_traits@D@std@@V?$allocator@D@2@@std@@V?$vector@V?$basic_string@DU?$char_traits@D@std@@V?$allocator@D@2@@std@@V?$allocator@V?$basic_string@DU?$char_traits@D@std@@V?$allocator@D@2@@std@@@2@@3@@Z
?requiresCorrectToolForDrops@Block@@QEBA_NXZ
?requiresValidLevel@CommandOrigin@@UEBA_NXZ
?reset@BinaryStream@@QEAAXXZ
?resetPlayerScore@Scoreboard@@QEAAXAEBUScoreboardId@@@Z
?resetPlayerScore@Scoreboard@@QEAA_NAEBUScoreboardId@@AEAVObjective@@@Z
?resolveBlock@CommandBlockName@@QEBA?AVCommandBlockNameResult@@H@Z
?results@?$CommandSelector@VActor@@@@QEBA?AV?$CommandSelectorResults@VActor@@@@AEBVCommandOrigin@@@Z
?results@?$CommandSelector@VPlayer@@@@QEBA?AV?$CommandSelectorResults@VPlayer@@@@AEBVCommandOrigin@@@Z
?run@Command@@QEBAXAEBVCommandOrigin@@AEAVCommandOutput@@@Z
?runDedicatedServerLoop@DedicatedServer@@QEAA?AW4StartResult@1@AEAVFilePathManager@Core@@AEAVPropertiesSettings@@AEAVLevelSettings@@AEAVAllowListFile@@AEAV?$unique_ptr@VPermissionsFile@@U?$default_delete@VPermissionsFile@@@std@@@std@@AEBVActivationArguments@Bedrock@@AEAVTestConfig@@@Z
?sameItemAndAux@ItemStackBase@@QEBA_NAEBV1@@Z
?save@Actor@@QEBA_NAEAVCompoundTag@@@Z
?save@BlockActor@@UEBA_NAEAVCompoundTag@@AEBVSaveContext@@@Z
?save@ItemStackBase@@QEBA?AV?$unique_ptr@VCompoundTag@@U?$default_delete@VCompoundTag@@@std@@@std@@AEBVSaveContext@@@Z
?save@MapItemSavedData@@QEAAXAEAVLevelStorage@@@Z
?save@MobEffectInstance@@QEBA?AV?$unique_ptr@VCompoundTag@@U?$default_delete@VCompoundTag@@@std@@@std@@XZ
?saveLiveChunk@ChunkSource@@UEAA_NAEAVLevelChunk@@@Z
?searchActors@HitDetection@@YAXAEBVVec3@@M0AEBVAABB@@PEAVActor@@PEAVPlayer@@AEAMAEAPEAV4@AEAV2@_N@Z
?send@NetworkSystem@@QEAAXAEBVNetworkIdentifier@@AEBVPacket@@W4SubClientId@@@Z
?sendBlockPlacedByPlayer@BlockEventCoordinator@@QEAAXAEAVPlayer@@AEBVBlock@@AEBVBlockPos@@_N@Z
?sendBroadcast@Dimension@@UEAAXAEBVPacket@@PEAVPlayer@@@Z
?sendEvent@ActorEventCoordinator@@QEAA?AW4CoordinatorResult@@AEBV?$EventRef@U?$ActorGameplayEvent@W4CoordinatorResult@@@@@@@Z
?sendLoginMessageLocal@ServerNetworkHandler@@QEAAXAEBVNetworkIdentifier@@AEBVConnectionRequest@@AEAVServerPlayer@@@Z
?sendPacketForEntity@Dimension@@UEAAXAEBVActor@@AEBVPacket@@PEBVPlayer@@@Z
?sendPacketForPosition@Dimension@@UEAAXAEBVBlockPos@@AEBVPacket@@PEBVPlayer@@@Z
?sendServerInitializeEnd@ServerInstanceEventCoordinator@@QEAAXAEAVServerInstance@@@Z
?sendServerLegacyParticle@LevelListener@@UEAAXW4ParticleType@@AEBVVec3@@1H@Z
?sendTelemetry@Command@@QEBAXAEBVCommandOrigin@@AEAVCommandOutput@@@Z
?serialize@ActorCommandOrigin@@UEBA?AVCompoundTag@@XZ
?serialize@CommandOrigin@@UEBA?AVCompoundTag@@XZ
?serialize@Dimension@@UEBAXAEAVCompoundTag@@@Z
?serialize@PlayerCommandOrigin@@UEBA?AVCompoundTag@@XZ
?serialize@ServerCommandOrigin@@UEBA?AVCompoundTag@@XZ
?serialize@TrackingRecord@PositionTrackingDB@@QEBA?AVCompoundTag@@XZ
?serverKey@PlayerDataSystem@@YA?AV?$basic_string@DU?$char_traits@D@std@@V?$allocator@D@2@@std@@AEAVLevelStorage@@AEBVPlayer@@@Z
?set@ItemStackBase@@QEAAXH@Z
?setAABB@Actor@@QEAAXAEBVAABB@@@Z
?setActorFlag@SynchedActorDataAccess@@YAXAEAVEntityContext@@W4ActorFlags@@_N@Z
?setBlock@BlockSource@@QEAA_NAEBVBlockPos@@AEBVBlock@@HV?$shared_ptr@VBlockActor@@@std@@PEBUActorBlockSyncMessage@@PEAVActor@@@Z
?setBlock@BlockSource@@QEAA_NHHHAEBVBlock@@HPEAVActor@@@Z
?setBlock@LevelChunk@@QEAAAEBVBlock@@AEBVChunkBlockPos@@AEBV2@PEAVBlockSource@@V?$shared_ptr@VBlockActor@@@std@@@Z
?setBlockVolume@LevelChunk@@QEAAXAEBVBlockVolume@@I@Z
?setCarryingBlock@EnderMan@@QEAAXAEBVBlock@@@Z
?setCurrentValue@AttributeInstance@@QEAAXM@Z
?setCustomLore@ItemStackBase@@QEAAXAEBV?$vector@V?$basic_string@DU?$char_traits@D@std@@V?$allocator@D@2@@std@@V?$allocator@V?$basic_string@DU?$char_traits@D@std@@V?$allocator@D@2@@std@@@2@@std@@@Z
?setCustomName@ItemStackBase@@QEAAXAEBVRedactableString@Safety@Bedrock@@@Z
?setDamageValue@ItemStackBase@@QEAAXF@Z
?setDimension@Actor@@QEAAXV?$WeakRef@VDimension@@@@@Z
?setEducationFeaturesEnabled@LevelData@@QEAAX_N@Z
?setExperimentEnabled@Experiments@@QEAAXW4AllExperiments@@_N@Z
?setGameType@LevelData@@QEAAXW4GameType@@@Z
?setItemLockMode@ItemLockHelper@@SAXAEAVItemStackBase@@W4ItemLockMode@@@Z
?setKeepOnDeath@ItemLockHelper@@SAXAEAVItemStackBase@@_N@Z
?setLevelChunk@ChunkSource@@UEAAXV?$shared_ptr@VLevelChunk@@@std@@@Z
?setLevelName@LevelData@@QEAAXAEBV?$basic_string@DU?$char_traits@D@std@@V?$allocator@D@2@@std@@@Z
?setLocalPlayerAsInitialized@ServerPlayer@@QEAAXXZ
?setLocked@MapItemSavedData@@QEAAXXZ
?setMaxNumPlayers@ServerNetworkHandler@@QEAAHH@Z
?setMaxValue@AttributeInstance@@QEAAXM@Z
?setMolangVariable@MolangVariableMap@@QEAAXAEBVHashedString@@AEBUMolangScriptArg@@@Z
?setNameTag@Actor@@QEAAXAEBV?$basic_string@DU?$char_traits@D@std@@V?$allocator@D@2@@std@@@Z
?setNull@ItemStack@@UEAAXV?$optional@V?$basic_string@DU?$char_traits@D@std@@V?$allocator@D@2@@std@@@std@@@Z
?setOnFire@OnFireSystem@@SAXAEAVActor@@H@Z
?setOnFireNoEffects@OnFireSystem@@SAXAEAVActor@@H@Z
?setOrigin@MapItemSavedData@@QEAAXVVec3@@HV?$AutomaticID@VDimension@@H@@_N2AEBVBlockPos@@@Z
?setPixel@MapItemSavedData@@QEAA_NIII@Z
?setPlayerUIItem@Player@@QEAAXW4PlayerUISlot@@AEBVItemStack@@_N@Z
?setRandomSeed@LevelSettings@@QEAAAEAV1@VLevelSeed64@@@Z
?setRepairCost@ItemStackBase@@QEAAXH@Z
?setRespawnPosition@Player@@QEAAXAEBVBlockPos@@V?$AutomaticID@VDimension@@H@@@Z
?setSaved@LevelChunk@@QEAAXXZ
?setScale@MapItemSavedData@@QEAAXH@Z
?setSelectedSlot@Player@@QEAAAEBVItemStack@@H@Z
?setSoftEnumValues@CommandRegistry@@QEAAXAEBV?$basic_string@DU?$char_traits@D@std@@V?$allocator@D@2@@std@@V?$vector@V?$basic_string@DU?$char_traits@D@std@@V?$allocator@D@2@@std@@V?$allocator@V?$basic_string@DU?$char_traits@D@std@@V?$allocator@D@2@@std@@@2@@3@@Z
?setSpawnPos@LevelData@@QEAAXAEBVBlockPos@@@Z
?setSpawnSettings@LevelSettings@@QEAAAEAV1@USpawnSettings@@@Z
?setStatusFlag@Actor@@QEAAXW4ActorFlags@@_N@Z
?setUnrecoverableErrorCallback@ServerInstance@@QEAAXV?$function@$$A6AXPEBD0@Z@std@@@Z
?setVariant@Actor@@QEAAXH@Z
?setVelocity@Actor@@QEAAXAEBVVec3@@@Z
?setup@AbilityCommand@@SAXAEAVCommandRegistry@@@Z
?setup@AgentCommand@@SAXAEAVCommandRegistry@@@Z
?setup@AllowListCommand@@SAXAEAVCommandRegistry@@AEAVAllowListFile@@@Z
?setup@CameraAimAssistCommand@@SAXAEAVCommandRegistry@@@Z
?setup@CameraCommand@@SAXAEAVCommandRegistry@@PEBVExperiments@@@Z
?setup@CameraShakeCommand@@SAXAEAVCommandRegistry@@@Z
?setup@ChangeSettingCommand@@SAXAEAVCommandRegistry@@@Z
?setup@ClearCommand@@SAXAEAVCommandRegistry@@@Z
?setup@ClearSpawnPointCommand@@SAXAEAVCommandRegistry@@@Z
?setup@CloneCommand@@SAXAEAVCommandRegistry@@@Z
?setup@CodeBuilderActorInfoCommand@@SAXAEAVCommandRegistry@@@Z
?setup@CodeBuilderCommand@@SAXAEAVCommandRegistry@@@Z
?setup@DamageCommand@@SAXAEAVCommandRegistry@@@Z
?setup@DayLockCommand@@SAXAEAVCommandRegistry@@@Z
?setup@DeOpCommand@@SAXAEAVCommandRegistry@@@Z
?setup@DedicatedWSServerCommand@@SAXAEAVCommandRegistry@@AEAVIMinecraftApp@@@Z
?setup@DialogueCommand@@SAXAEAVCommandRegistry@@@Z
?setup@DifficultyCommand@@SAXAEAVCommandRegistry@@@Z
?setup@EffectCommand@@SAXAEAVCommandRegistry@@@Z
?setup@EnchantCommand@@SAXAEAVCommandRegistry@@@Z
?setup@EventCommand@@SAXAEAVCommandRegistry@@@Z
?setup@ExecuteCommand@@SAXAEAVCommandRegistry@@_NH@Z
?setup@FillCommand@@SAXAEAVCommandRegistry@@@Z
?setup@FogCommand@@SAXAEAVCommandRegistry@@@Z
?setup@FunctionCommand@@SAXAEAVCommandRegistry@@@Z
?setup@GameModeCommand@@SAXAEAVCommandRegistry@@@Z
?setup@GameRuleCommand@@SAXAEAVCommandRegistry@@$$QEAUInitProxy@1@@Z
?setup@GameTestCommand@@SAXAEAVCommandRegistry@@@Z
?setup@GetChunkDataCommand@@SAXAEAVCommandRegistry@@@Z
?setup@GetChunksCommand@@SAXAEAVCommandRegistry@@@Z
?setup@GetSpawnPointCommand@@SAXAEAVCommandRegistry@@@Z
?setup@GetTopSolidBlockCommand@@SAXAEAVCommandRegistry@@@Z
?setup@GiveCommand@@SAXAEAVCommandRegistry@@@Z
?setup@GlobalPauseCommand@@SAXAEAVCommandRegistry@@@Z
?setup@HudCommand@@SAXAEAVCommandRegistry@@@Z
?setup@ImmutableWorldCommand@@SAXAEAVCommandRegistry@@@Z
?setup@InputPermissionCommand@@SAXAEAVCommandRegistry@@@Z
?setup@KickCommand@@SAXAEAVCommandRegistry@@@Z
?setup@KillCommand@@SAXAEAVCommandRegistry@@@Z
?setup@LessonCommand@@SAXAEAVCommandRegistry@@@Z
?setup@ListDCommand@@SAXAEAVCommandRegistry@@@Z
?setup@LocateCommand@@SAXAEAVCommandRegistry@@@Z
?setup@LootCommand@@SAXAEAVCommandRegistry@@VItemRegistryRef@@@Z
?setup@MeCommand@@SAXAEAVCommandRegistry@@@Z
?setup@MobEventCommand@@SAXAEAVCommandRegistry@@$$QEAUInitProxy@1@@Z
?setup@MusicCommand@@SAXAEAVCommandRegistry@@@Z
?setup@NewExecuteCommand@@SAXAEAVCommandRegistry@@H@Z
?setup@OpCommand@@SAXAEAVCommandRegistry@@@Z
?setup@ParticleCommand@@SAXAEAVCommandRegistry@@@Z
?setup@PermissionCommand@@SAXAEAVCommandRegistry@@PEAVPermissionsFile@@@Z
?setup@PlaceCommand@@SAXAEAVCommandRegistry@@AEBV?$unordered_map@VHashedString@@UBiomeDecorationFeature@@U?$hash@VHashedString@@@std@@U?$equal_to@VHashedString@@@4@V?$allocator@U?$pair@$$CBVHashedString@@UBiomeDecorationFeature@@@std@@@4@@std@@AEBVExperiments@@@Z
?setup@PlayAnimationCommand@@SAXAEAVCommandRegistry@@@Z
?setup@PlaySoundCommand@@SAXAEAVCommandRegistry@@@Z
?setup@QueryTargetCommand@@SAXAEAVCommandRegistry@@@Z
?setup@ReloadCommand@@SAXAEAVCommandRegistry@@_N1@Z
?setup@ReplaceItemCommand@@SAXAEAVCommandRegistry@@@Z
?setup@ResourceUriCommand@@SAXAEAVCommandRegistry@@@Z
?setup@RideCommand@@SAXAEAVCommandRegistry@@@Z
?setup@SaveCommand@@SAXAEAVCommandRegistry@@@Z
?setup@SayCommand@@SAXAEAVCommandRegistry@@@Z
?setup@ScheduleCommand@@SAXAEAVCommandRegistry@@@Z
?setup@ScoreboardCommand@@SAXAEAVCommandRegistry@@$$QEAUInitProxy@1@@Z
?setup@ScriptEventCommand@@SAXAEAVCommandRegistry@@@Z
?setup@SendShowStoreOfferCommand@@SAXAEAVCommandRegistry@@@Z
?setup@SetBlockCommand@@SAXAEAVCommandRegistry@@@Z
?setup@SetMaxPlayersCommand@@SAXAEAVCommandRegistry@@@Z
?setup@SetMovementCommand@@SAXAEAVCommandRegistry@@@Z
?setup@SetWorldSpawnCommand@@SAXAEAVCommandRegistry@@@Z
?setup@SpawnPointCommand@@SAXAEAVCommandRegistry@@@Z
?setup@SpreadPlayersCommand@@SAXAEAVCommandRegistry@@@Z
?setup@StopSoundCommand@@SAXAEAVCommandRegistry@@@Z
?setup@StructureCommand@@SAXAEAVCommandRegistry@@@Z
?setup@SummonCommand@@SAXAEAVCommandRegistry@@@Z
?setup@TagCommand@@SAXAEAVCommandRegistry@@@Z
?setup@TakePictureCommand@@SAXAEAVCommandRegistry@@@Z
?setup@TeleportCommand@@SAXAEAVCommandRegistry@@@Z
?setup@TellCommand@@SAXAEAVCommandRegistry@@@Z
?setup@TellRawCommand@@SAXAEAVCommandRegistry@@@Z
?setup@TestForBlockCommand@@SAXAEAVCommandRegistry@@@Z
?setup@TestForBlocksCommand@@SAXAEAVCommandRegistry@@@Z
?setup@TestForCommand@@SAXAEAVCommandRegistry@@@Z
?setup@TickingAreaCommand@@SAXAEAVCommandRegistry@@@Z
?setup@TimeCommand@@SAXAEAVCommandRegistry@@@Z
?setup@TitleCommand@@SAXAEAVCommandRegistry@@@Z
?setup@TitleRawCommand@@SAXAEAVCommandRegistry@@@Z
?setup@TransferServerCommand@@SAXAEAVCommandRegistry@@@Z
?setup@UnlockRecipeCommand@@SAXAEAVCommandRegistry@@@Z
?setup@WSServerCommand@@SAXAEAVCommandRegistry@@@Z
?setup@WeatherCommand@@SAXAEAVCommandRegistry@@@Z
?setup@WorldBuilderCommand@@SAXAEAVCommandRegistry@@@Z
?setup@XPCommand@@SAXAEAVCommandRegistry@@@Z
?setupStandaloneServer@DedicatedServerCommands@@SAXAEBV?$not_null@V?$NonOwnerPointer@VMinecraft@@@Bedrock@@@gsl@@AEAVIMinecraftApp@@AEAVLevel@@AEAVLevelStorage@@AEAVDedicatedServer@@AEAVAllowListFile@@PEAUScriptSettings@@@Z
?shoot@ProjectileComponent@@QEAAXAEAVActor@@AEBVVec3@@MM1PEAV2@@Z
?shouldKeepOnDeath@ItemLockHelper@@SA_NAEBVItemStackBase@@@Z
?shouldResetTime@DefaultDataLoadHelper@@UEAA_NXZ
?shouldResetTime@NewUniqueIdsDataLoadHelper@@UEAA_NXZ
?showSky@Dimension@@UEBA_NXZ
?shutdown@ChunkSource@@UEAAXXZ
?simulateStopDestroyingBlock@SimulatedPlayer@@QEAAXXZ
?size@ListTag@@QEBAHXZ
?spawnEntityAt@CommandUtils@@YAPEAVActor@@AEAVBlockSource@@AEBVVec3@@AEBUActorDefinitionIdentifier@@AEAUActorUniqueID@@PEAV2@@Z
?startFalling@FallingBlock@@UEBAXAEAVBlockSource@@AEBVBlockPos@@AEBVBlock@@_N@Z
?startLeaveGame@Dimension@@UEAAXXZ
?stopRiding@Actor@@QEAAX_N00@Z
?structureSpawnPos@LevelChunkVolumeData@@QEBA?AV?$vector@VBlockPos@@V?$allocator@VBlockPos@@@std@@@std@@XZ
?success@CommandOutput@@QEAAXXZ
?symbolToString@CommandRegistry@@QEBA?AV?$basic_string@DU?$char_traits@D@std@@V?$allocator@D@2@@std@@VSymbol@1@@Z
?take@Player@@QEAA_NAEAVActor@@HH@Z
?takePicture@LevelListener@@UEAAXAEAVImageBuffer@cg@@PEAVActor@@1AEAUScreenshotOptions@@V?$function@$$A6AXAEAVImageBuffer@cg@@AEAUScreenshotOptions@@@Z@std@@@Z
?teleport@GameEventRegistry@@YAAEBVGameEvent@@XZ
?texturePackRequired@PropertiesSettings@@QEBA_NXZ
?tick@Actor@@QEAA_NAEAVBlockSource@@@Z
?tick@Dimension@@UEAAXXZ
?tick@Village@@QEAAXUTick@@AEAVBlockSource@@@Z
?tickBlockEntities@LevelChunk@@QEAAXAEAVBlockSource@@@Z
?tickBlocks@LevelChunk@@QEAAXAEAVBlockSource@@@Z
?tickEntitySystems@EntitySystemsManager@@QEAAXXZ
?tickImpl@LevelChunk@@QEAAXAEAVBlockSource@@AEBUTick@@V?$function@$$A6AXXZ@std@@@Z
?tickPendingTicks@BlockTickingQueue@@QEAA_NAEAVBlockSource@@AEBUTick@@H_N@Z
?tickRedstone@Dimension@@UEAAXXZ
?toCommandOriginData@CommandOrigin@@UEBA?AUCommandOriginData@@XZ
?toDebugString@ItemStack@@UEBA?AV?$basic_string@DU?$char_traits@D@std@@V?$allocator@D@2@@std@@XZ
?toServerNetworkSystem@ClientOrServerNetworkSystemRef@@QEAAAEAVServerNetworkSystem@@XZ
?toString@ByteArrayTag@@UEBA?AV?$basic_string@DU?$char_traits@D@std@@V?$allocator@D@2@@std@@XZ
?toString@ByteTag@@UEBA?AV?$basic_string@DU?$char_traits@D@std@@V?$allocator@D@2@@std@@XZ
?toString@CompoundTag@@UEBA?AV?$basic_string@DU?$char_traits@D@std@@V?$allocator@D@2@@std@@XZ
?toString@DoubleTag@@UEBA?AV?$basic_string@DU?$char_traits@D@std@@V?$allocator@D@2@@std@@XZ
?toString@EndTag@@UEBA?AV?$basic_string@DU?$char_traits@D@std@@V?$allocator@D@2@@std@@XZ
?toString@FloatTag@@UEBA?AV?$basic_string@DU?$char_traits@D@std@@V?$allocator@D@2@@std@@XZ
?toString@Int64Tag@@UEBA?AV?$basic_string@DU?$char_traits@D@std@@V?$allocator@D@2@@std@@XZ
?toString@IntArrayTag@@UEBA?AV?$basic_string@DU?$char_traits@D@std@@V?$allocator@D@2@@std@@XZ
?toString@IntTag@@UEBA?AV?$basic_string@DU?$char_traits@D@std@@V?$allocator@D@2@@std@@XZ
?toString@ItemStack@@UEBA?AV?$basic_string@DU?$char_traits@D@std@@V?$allocator@D@2@@std@@XZ
?toString@ListTag@@UEBA?AV?$basic_string@DU?$char_traits@D@std@@V?$allocator@D@2@@std@@XZ
?toString@ParseToken@CommandRegistry@@QEBA?AV?$basic_string@DU?$char_traits@D@std@@V?$allocator@D@2@@std@@XZ
?toString@ShortTag@@UEBA?AV?$basic_string@DU?$char_traits@D@std@@V?$allocator@D@2@@std@@XZ
?toString@StringTag@@UEBA?AV?$basic_string@DU?$char_traits@D@std@@V?$allocator@D@2@@std@@XZ
?toString@VanillaDimensions@@SA?BV?$basic_string@DU?$char_traits@D@std@@V?$allocator@D@2@@std@@AEBV?$AutomaticID@VDimension@@H@@@Z
?toString@Vec3@@QEBA?AV?$basic_string@DU?$char_traits@D@std@@V?$allocator@D@2@@std@@XZ
?toStyledString@Value@Json@@QEBA?AV?$basic_string@DU?$char_traits@D@std@@V?$allocator@D@2@@std@@XZ
?tryGetActor@ContainerScreenContext@@QEBAPEAVActor@@XZ
?tryGetBlendingDataProvider@ChunkSource@@UEAA?AV?$unique_ptr@VBlendingDataProvider@@U?$default_delete@VBlendingDataProvider@@@std@@@std@@XZ
?tryGetBlockActor@ContainerScreenContext@@QEBAPEAVBlockActor@@XZ
?tryGetBlockFromNBT@BlockSerializationUtils@@YA?AU?$pair@W4NBTState@BlockSerializationUtils@@PEBVBlock@@@std@@AEBVCompoundTag@@PEAUNbtToBlockCache@1@@Z
?tryGetFromEntity@Actor@@SAPEAV1@AEAVEntityContext@@_N@Z
?tryGetFromEntity@Actor@@SAPEAV1@AEBVStrictEntityContext@@AEAVEntityRegistry@@_N@Z
?tryGetFromEntity@Player@@SAPEAV1@AEAVEntityContext@@_N@Z
?tryGetFromEntity@ServerPlayer@@SAPEAV1@AEAVEntityContext@@_N@Z
?tryGetServerNetId@NetworkItemStackDescriptor@@QEBAPEBV?$TypedServerNetId@UItemStackNetIdTag@@H$0A@@@XZ
?tryGetStateFromLegacyData@BlockLegacy@@QEBAPEBVBlock@@G@Z
?trySpawnPigZombie@PortalBlock@@SAXAEAVBlockSource@@AEBVBlockPos@@W4PortalAxis@@@Z
?unregisterItem@ItemRegistryRef@@QEBAXAEBVHashedString@@@Z
?update@CircuitSceneGraph@@QEAAXPEAVBlockSource@@@Z
?update@Minecraft@@QEAA_NXZ
?updateBlocks@CircuitSystem@@QEAAXAEAVBlockSource@@AEBVBlockPos@@@Z
?updateCooldownAfterMove@HopperBlockActor@@QEAAXAEBUTick@@H@Z
?updateServerAnnouncement@ServerNetworkHandler@@QEAAXXZ
?updateValues@CommandOrigin@@UEAAXXZ
?upgradeOldLimboEntity@VanillaLevelChunkUpgrade@@YAXAEAVCompoundTag@@W4LimboEntitiesVersion@@_N@Z
?use@Block@@QEBA_NAEAVPlayer@@AEBVBlockPos@@EV?$optional@VVec3@@@std@@@Z
?useAllowList@PropertiesSettings@@QEBA_NXZ
?useOnlineAuthentication@PropertiesSettings@@QEBA_NXZ
?validRange@Command@@SA_NHHHAEAVCommandOutput@@@Z
?write@?$serialize@USerializedAbilitiesData@@@@SAXAEBUSerializedAbilitiesData@@AEAVBinaryStream@@@Z
?write@?$serialize@V?$vector@V?$unique_ptr@VDataItem@@U?$default_delete@VDataItem@@@std@@@std@@V?$allocator@V?$unique_ptr@VDataItem@@U?$default_delete@VDataItem@@@std@@@std@@@2@@std@@@@SAXAEBV?$vector@V?$unique_ptr@VDataItem@@U?$default_delete@VDataItem@@@std@@@std@@V?$allocator@V?$unique_ptr@VDataItem@@U?$default_delete@VDataItem@@@std@@@std@@@2@@std@@AEAVBinaryStream@@@Z
?write@?$serialize@VCompoundTag@@@@SAXAEBVCompoundTag@@AEAVBinaryStream@@@Z
?write@BinaryStream@@QEAAXPEBX_K@Z
?write@ByteArrayTag@@UEBAXAEAVIDataOutput@@@Z
?write@ByteTag@@UEBAXAEAVIDataOutput@@@Z
?write@ChangeDimensionPacket@@UEBAXAEAVBinaryStream@@@Z
?write@CompoundTag@@UEBAXAEAVIDataOutput@@@Z
?write@DoubleTag@@UEBAXAEAVIDataOutput@@@Z
?write@EndTag@@UEBAXAEAVIDataOutput@@@Z
?write@FloatTag@@UEBAXAEAVIDataOutput@@@Z
?write@Int64Tag@@UEBAXAEAVIDataOutput@@@Z
?write@IntArrayTag@@UEBAXAEAVIDataOutput@@@Z
?write@IntTag@@UEBAXAEAVIDataOutput@@@Z
?write@LevelChunkPacket@@UEBAXAEAVBinaryStream@@@Z
?write@ListTag@@UEBAXAEAVIDataOutput@@@Z
?write@ModalFormRequestPacket@@UEBAXAEAVBinaryStream@@@Z
?write@NbtIo@@YAXPEBVCompoundTag@@AEAVIDataOutput@@@Z
?write@PlayerActionPacket@@UEBAXAEAVBinaryStream@@@Z
?write@PlayerFogPacket@@UEBAXAEAVBinaryStream@@@Z
?write@RemoveActorPacket@@UEBAXAEAVBinaryStream@@@Z
?write@SerializedSkin@@QEBAXAEAVBinaryStream@@@Z
?write@ShortTag@@UEBAXAEAVIDataOutput@@@Z
?write@SpawnParticleEffectPacket@@UEBAXAEAVBinaryStream@@@Z
?write@StringTag@@UEBAXAEAVIDataOutput@@@Z
?write@TextPacket@@UEBAXAEAVBinaryStream@@@Z
?write@UpdateAbilitiesPacket@@UEBAXAEAVBinaryStream@@@Z
?write@UpdateAdventureSettingsPacket@@UEBAXAEAVBinaryStream@@@Z
?write@UpdateBlockPacket@@UEBAXAEAVBinaryStream@@@Z
?writeBool@BinaryStream@@QEAAX_NPEBD1@Z
?writeBool@BinaryStream@@UEAAX_NPEBD1@Z
?writeByte@BinaryStream@@QEAAXEPEBD0@Z
?writeByte@BinaryStream@@UEAAXEPEBD0@Z
?writeByte@BytesDataOutput@@UEAAXD@Z
?writeByte@VarIntDataOutput@@UEAAXD@Z
?writeBytes@StringByteOutput@@UEAAXPEBX_K@Z
?writeBytes@VarIntDataOutput@@UEAAXPEBX_K@Z
?writeConditional@BinaryStream@@UEAAXPEBD$$QEAV?$initializer_list@UConditionBlock@BinaryStream@@@std@@AEBV?$function_ref@$$A6AXAEAVBinaryStream@@@Z$$A6AX0@Z@brstd@@@Z
?writeConditional@BinaryStream@@UEAAXPEBD$$QEAV?$initializer_list@UConditionBlock@BinaryStream@@@std@@AEBV?$optional@V?$function_ref@$$A6AXAEAVBinaryStream@@@Z$$A6AX0@Z@brstd@@@3@@Z
?writeDouble@BigEndianStringByteOutput@@UEAAXN@Z
?writeDouble@BinaryStream@@QEAAXNPEBD0@Z
?writeDouble@BinaryStream@@UEAAXNPEBD0@Z
?writeDouble@BytesDataOutput@@UEAAXN@Z
?writeDouble@VarIntDataOutput@@UEAAXN@Z
?writeEntityChunkTransfer@ChunkSource@@UEAAXAEAVLevelChunk@@@Z
?writeEntityChunkTransfersToUnloadedChunk@ChunkSource@@UEAAXAEBVChunkKey@@AEBV?$vector@UActorUnloadedChunkTransferEntry@@V?$allocator@UActorUnloadedChunkTransferEntry@@@std@@@std@@@Z
?writeFixedFloat@BinaryStream@@UEAAXMPEBD0N@Z
?writeFloat@BigEndianStringByteOutput@@UEAAXM@Z
?writeFloat@BinaryStream@@QEAAXMPEBD0@Z
?writeFloat@BinaryStream@@UEAAXMPEBD0@Z
?writeFloat@BytesDataOutput@@UEAAXM@Z
?writeFloat@VarIntDataOutput@@UEAAXM@Z
?writeIf@BinaryStream@@UEAAX_NPEBDAEBV?$function_ref@$$A6AXAEAVBinaryStream@@@Z$$A6AX0@Z@brstd@@2@Z
?writeIf@BinaryStream@@UEAAX_NPEBDAEBV?$function_ref@$$A6AXAEAVBinaryStream@@@Z$$A6AX0@Z@brstd@@AEBV?$optional@V?$function_ref@$$A6AXAEAVBinaryStream@@@Z$$A6AX0@Z@brstd@@@std@@@Z
?writeInt@BigEndianStringByteOutput@@UEAAXH@Z
?writeInt@BytesDataOutput@@UEAAXH@Z
?writeInt@VarIntDataOutput@@UEAAXH@Z
?writeLongLong@BigEndianStringByteOutput@@UEAAX_J@Z
?writeLongLong@BytesDataOutput@@UEAAX_J@Z
?writeLongLong@VarIntDataOutput@@UEAAX_J@Z
?writeLongString@BytesDataOutput@@UEAAXV?$basic_string_view@DU?$char_traits@D@std@@@std@@@Z
?writeLongString@VarIntDataOutput@@UEAAXV?$basic_string_view@DU?$char_traits@D@std@@@std@@@Z
?writeNormalizedFloat@BinaryStream@@UEAAXMPEBD0@Z
?writeShort@BigEndianStringByteOutput@@UEAAXF@Z
?writeShort@BytesDataOutput@@UEAAXF@Z
?writeShort@VarIntDataOutput@@UEAAXF@Z
?writeSignedBigEndianInt@BinaryStream@@QEAAXHPEBD0@Z
?writeSignedBigEndianInt@BinaryStream@@UEAAXHPEBD0@Z
?writeSignedInt64@BinaryStream@@QEAAX_JPEBD1@Z
?writeSignedInt64@BinaryStream@@UEAAX_JPEBD1@Z
?writeSignedInt@BinaryStream@@QEAAXHPEBD0@Z
?writeSignedInt@BinaryStream@@UEAAXHPEBD0@Z
?writeSignedShort@BinaryStream@@QEAAXFPEBD0@Z
?writeSignedShort@BinaryStream@@UEAAXFPEBD0@Z
?writeString@BinaryStream@@QEAAXV?$basic_string_view@DU?$char_traits@D@std@@@std@@PEBD1@Z
?writeString@BinaryStream@@UEAAXV?$basic_string_view@DU?$char_traits@D@std@@@std@@PEBD1@Z
?writeString@BytesDataOutput@@UEAAXV?$basic_string_view@DU?$char_traits@D@std@@@std@@@Z
?writeString@VarIntDataOutput@@UEAAXV?$basic_string_view@DU?$char_traits@D@std@@@std@@@Z
?writeUnsignedChar@BinaryStream@@QEAAXEPEBD0@Z
?writeUnsignedInt64@BinaryStream@@QEAAX_KPEBD1@Z
?writeUnsignedInt64@BinaryStream@@UEAAX_KPEBD1@Z
?writeUnsignedInt@BinaryStream@@QEAAXIPEBD0@Z
?writeUnsignedInt@BinaryStream@@UEAAXIPEBD0@Z
?writeUnsignedShort@BinaryStream@@QEAAXGPEBD0@Z
?writeUnsignedShort@BinaryStream@@UEAAXGPEBD0@Z
?writeUnsignedVarInt64@BinaryStream@@QEAAX_KPEBD1@Z
?writeUnsignedVarInt64@BinaryStream@@UEAAX_KPEBD1@Z
?writeUnsignedVarInt@BinaryStream@@QEAAXIPEBD0@Z
?writeUnsignedVarInt@BinaryStream@@UEAAXIPEBD0@Z
?writeVarInt64@BinaryStream@@QEAAX_JPEBD1@Z
?writeVarInt64@BinaryStream@@UEAAX_JPEBD1@Z
?writeVarInt@BinaryStream@@QEAAXHPEBD0@Z
?writeVarInt@BinaryStream@@UEAAXHPEBD0@Z
__imp_?$handle@ItemUseOnActorInventoryTransaction@@QEBA?AW4InventoryTransactionError@@AEAVPlayer@@_N@Z
__imp_?WaterBucket@VanillaItemNames@@YAAEBVHashedString@@XZ
__imp_?getByName@Attribute@@SAAEAV1@AEBVHashedString@@@Z
setPlayerMaxHealth@Player@entity@immortal_cultivation@@SAXPEAV1@M@Z
